
GccApplication8.elf:     file format elf32-avr

Sections:
Idx Name          Size      VMA       LMA       File off  Algn
  0 .data         00000036  00800100  00000dde  00000e72  2**0
                  CONTENTS, ALLOC, LOAD, DATA
  1 .text         00000dde  00000000  00000000  00000094  2**1
                  CONTENTS, ALLOC, LOAD, READONLY, CODE
  2 .bss          0000008e  00800136  00800136  00000ea8  2**0
                  ALLOC
  3 .comment      00000030  00000000  00000000  00000ea8  2**0
                  CONTENTS, READONLY
  4 .note.gnu.avr.deviceinfo 00000040  00000000  00000000  00000ed8  2**2
                  CONTENTS, READONLY
  5 .debug_aranges 00000288  00000000  00000000  00000f18  2**0
                  CONTENTS, READONLY, DEBUGGING
  6 .debug_info   00003248  00000000  00000000  000011a0  2**0
                  CONTENTS, READONLY, DEBUGGING
  7 .debug_abbrev 00001052  00000000  00000000  000043e8  2**0
                  CONTENTS, READONLY, DEBUGGING
  8 .debug_line   00001604  00000000  00000000  0000543a  2**0
                  CONTENTS, READONLY, DEBUGGING
  9 .debug_frame  0000077c  00000000  00000000  00006a40  2**2
                  CONTENTS, READONLY, DEBUGGING
 10 .debug_str    00000b45  00000000  00000000  000071bc  2**0
                  CONTENTS, READONLY, DEBUGGING
 11 .debug_loc    000025df  00000000  00000000  00007d01  2**0
                  CONTENTS, READONLY, DEBUGGING
 12 .debug_ranges 00000260  00000000  00000000  0000a2e0  2**0
                  CONTENTS, READONLY, DEBUGGING

Disassembly of section .text:

00000000 <__vectors>:
   0:	0c 94 d7 00 	jmp	0x1ae	; 0x1ae <__ctors_end>
   4:	0c 94 f4 00 	jmp	0x1e8	; 0x1e8 <__bad_interrupt>
   8:	0c 94 f4 00 	jmp	0x1e8	; 0x1e8 <__bad_interrupt>
   c:	0c 94 f4 00 	jmp	0x1e8	; 0x1e8 <__bad_interrupt>
  10:	0c 94 f4 00 	jmp	0x1e8	; 0x1e8 <__bad_interrupt>
  14:	0c 94 f4 00 	jmp	0x1e8	; 0x1e8 <__bad_interrupt>
  18:	0c 94 f4 00 	jmp	0x1e8	; 0x1e8 <__bad_interrupt>
  1c:	0c 94 f4 00 	jmp	0x1e8	; 0x1e8 <__bad_interrupt>
  20:	0c 94 f4 00 	jmp	0x1e8	; 0x1e8 <__bad_interrupt>
  24:	0c 94 f4 00 	jmp	0x1e8	; 0x1e8 <__bad_interrupt>
  28:	0c 94 f4 00 	jmp	0x1e8	; 0x1e8 <__bad_interrupt>
  2c:	0c 94 f4 00 	jmp	0x1e8	; 0x1e8 <__bad_interrupt>
  30:	0c 94 f4 00 	jmp	0x1e8	; 0x1e8 <__bad_interrupt>
  34:	0c 94 f4 00 	jmp	0x1e8	; 0x1e8 <__bad_interrupt>
  38:	0c 94 f4 00 	jmp	0x1e8	; 0x1e8 <__bad_interrupt>
  3c:	0c 94 f4 00 	jmp	0x1e8	; 0x1e8 <__bad_interrupt>
  40:	0c 94 f4 00 	jmp	0x1e8	; 0x1e8 <__bad_interrupt>
  44:	0c 94 f4 00 	jmp	0x1e8	; 0x1e8 <__bad_interrupt>
  48:	0c 94 e5 02 	jmp	0x5ca	; 0x5ca <__vector_18>
  4c:	0c 94 c7 02 	jmp	0x58e	; 0x58e <__vector_19>
  50:	0c 94 f4 00 	jmp	0x1e8	; 0x1e8 <__bad_interrupt>
  54:	0c 94 f4 00 	jmp	0x1e8	; 0x1e8 <__bad_interrupt>
  58:	0c 94 f4 00 	jmp	0x1e8	; 0x1e8 <__bad_interrupt>
  5c:	0c 94 f4 00 	jmp	0x1e8	; 0x1e8 <__bad_interrupt>
  60:	0c 94 f4 00 	jmp	0x1e8	; 0x1e8 <__bad_interrupt>
  64:	0c 94 f4 00 	jmp	0x1e8	; 0x1e8 <__bad_interrupt>
  68:	0c 94 f4 00 	jmp	0x1e8	; 0x1e8 <__bad_interrupt>
  6c:	0c 94 f4 00 	jmp	0x1e8	; 0x1e8 <__bad_interrupt>
  70:	0c 94 1e 03 	jmp	0x63c	; 0x63c <__vector_28>
  74:	0c 94 00 03 	jmp	0x600	; 0x600 <__vector_29>
  78:	0c 94 f4 00 	jmp	0x1e8	; 0x1e8 <__bad_interrupt>
  7c:	0c 94 f4 00 	jmp	0x1e8	; 0x1e8 <__bad_interrupt>
  80:	0c 94 f4 00 	jmp	0x1e8	; 0x1e8 <__bad_interrupt>
  84:	0c 94 f4 00 	jmp	0x1e8	; 0x1e8 <__bad_interrupt>
  88:	0c 94 f4 00 	jmp	0x1e8	; 0x1e8 <__bad_interrupt>
  8c:	0c 94 f4 00 	jmp	0x1e8	; 0x1e8 <__bad_interrupt>
  90:	0c 94 f4 00 	jmp	0x1e8	; 0x1e8 <__bad_interrupt>
  94:	0c 94 f4 00 	jmp	0x1e8	; 0x1e8 <__bad_interrupt>
  98:	0c 94 f4 00 	jmp	0x1e8	; 0x1e8 <__bad_interrupt>
  9c:	0c 94 f4 00 	jmp	0x1e8	; 0x1e8 <__bad_interrupt>
  a0:	0c 94 f4 00 	jmp	0x1e8	; 0x1e8 <__bad_interrupt>
  a4:	0c 94 f4 00 	jmp	0x1e8	; 0x1e8 <__bad_interrupt>
  a8:	0c 94 f4 00 	jmp	0x1e8	; 0x1e8 <__bad_interrupt>
  ac:	0c 94 f4 00 	jmp	0x1e8	; 0x1e8 <__bad_interrupt>
  b0:	0c 94 f4 00 	jmp	0x1e8	; 0x1e8 <__bad_interrupt>

000000b4 <__trampolines_end>:
  b4:	00 40       	sbci	r16, 0x00	; 0
  b6:	7a 10       	cpse	r7, r10
  b8:	f3 5a       	subi	r31, 0xA3	; 163
  ba:	00 a0       	ldd	r0, Z+32	; 0x20
  bc:	72 4e       	sbci	r23, 0xE2	; 226
  be:	18 09       	sbc	r17, r8
  c0:	00 10       	cpse	r0, r0
  c2:	a5 d4       	rcall	.+2378   	; 0xa0e <dtoa_prf+0x106>
  c4:	e8 00       	.word	0x00e8	; ????
  c6:	00 e8       	ldi	r16, 0x80	; 128
  c8:	76 48       	sbci	r23, 0x86	; 134
  ca:	17 00       	.word	0x0017	; ????
  cc:	00 e4       	ldi	r16, 0x40	; 64
  ce:	0b 54       	subi	r16, 0x4B	; 75
  d0:	02 00       	.word	0x0002	; ????
  d2:	00 ca       	rjmp	.-3072   	; 0xfffff4d4 <__eeprom_end+0xff7ef4d4>
  d4:	9a 3b       	cpi	r25, 0xBA	; 186
  d6:	00 00       	nop
  d8:	00 e1       	ldi	r16, 0x10	; 16
  da:	f5 05       	cpc	r31, r5
  dc:	00 00       	nop
  de:	80 96       	adiw	r24, 0x20	; 32
  e0:	98 00       	.word	0x0098	; ????
  e2:	00 00       	nop
  e4:	40 42       	sbci	r20, 0x20	; 32
  e6:	0f 00       	.word	0x000f	; ????
  e8:	00 00       	nop
  ea:	a0 86       	std	Z+8, r10	; 0x08
  ec:	01 00       	.word	0x0001	; ????
  ee:	00 00       	nop
  f0:	10 27       	eor	r17, r16
  f2:	00 00       	nop
  f4:	00 00       	nop
  f6:	e8 03       	fmulsu	r22, r16
  f8:	00 00       	nop
  fa:	00 00       	nop
  fc:	64 00       	.word	0x0064	; ????
  fe:	00 00       	nop
 100:	00 00       	nop
 102:	0a 00       	.word	0x000a	; ????
 104:	00 00       	nop
 106:	00 00       	nop
 108:	01 00       	.word	0x0001	; ????
 10a:	00 00       	nop
 10c:	00 00       	nop
 10e:	2c 76       	andi	r18, 0x6C	; 108
 110:	d8 88       	ldd	r13, Y+16	; 0x10
 112:	dc 67       	ori	r29, 0x7C	; 124
 114:	4f 08       	sbc	r4, r15
 116:	23 df       	rcall	.-442    	; 0xffffff5e <__eeprom_end+0xff7eff5e>
 118:	c1 df       	rcall	.-126    	; 0x9c <__SREG__+0x5d>
 11a:	ae 59       	subi	r26, 0x9E	; 158
 11c:	e1 b1       	in	r30, 0x01	; 1
 11e:	b7 96       	adiw	r30, 0x27	; 39
 120:	e5 e3       	ldi	r30, 0x35	; 53
 122:	e4 53       	subi	r30, 0x34	; 52
 124:	c6 3a       	cpi	r28, 0xA6	; 166
 126:	e6 51       	subi	r30, 0x16	; 22
 128:	99 76       	andi	r25, 0x69	; 105
 12a:	96 e8       	ldi	r25, 0x86	; 134
 12c:	e6 c2       	rjmp	.+1484   	; 0x6fa <__mulsf3+0xe>
 12e:	84 26       	eor	r8, r20
 130:	eb 89       	ldd	r30, Y+19	; 0x13
 132:	8c 9b       	sbis	0x11, 4	; 17
 134:	62 ed       	ldi	r22, 0xD2	; 210
 136:	40 7c       	andi	r20, 0xC0	; 192
 138:	6f fc       	.word	0xfc6f	; ????
 13a:	ef bc       	out	0x2f, r14	; 47
 13c:	9c 9f       	mul	r25, r28
 13e:	40 f2       	brcs	.-112    	; 0xd0 <__trampolines_end+0x1c>
 140:	ba a5       	ldd	r27, Y+42	; 0x2a
 142:	6f a5       	ldd	r22, Y+47	; 0x2f
 144:	f4 90       	lpm	r15, Z
 146:	05 5a       	subi	r16, 0xA5	; 165
 148:	2a f7       	brpl	.-54     	; 0x114 <__trampolines_end+0x60>
 14a:	5c 93       	st	X, r21
 14c:	6b 6c       	ori	r22, 0xCB	; 203
 14e:	f9 67       	ori	r31, 0x79	; 121
 150:	6d c1       	rjmp	.+730    	; 0x42c <uart0_putstr+0xc>
 152:	1b fc       	.word	0xfc1b	; ????
 154:	e0 e4       	ldi	r30, 0x40	; 64
 156:	0d 47       	sbci	r16, 0x7D	; 125
 158:	fe f5       	brtc	.+126    	; 0x1d8 <.do_clear_bss_loop>
 15a:	20 e6       	ldi	r18, 0x60	; 96
 15c:	b5 00       	.word	0x00b5	; ????
 15e:	d0 ed       	ldi	r29, 0xD0	; 208
 160:	90 2e       	mov	r9, r16
 162:	03 00       	.word	0x0003	; ????
 164:	94 35       	cpi	r25, 0x54	; 84
 166:	77 05       	cpc	r23, r7
 168:	00 80       	ld	r0, Z
 16a:	84 1e       	adc	r8, r20
 16c:	08 00       	.word	0x0008	; ????
 16e:	00 20       	and	r0, r0
 170:	4e 0a       	sbc	r4, r30
 172:	00 00       	nop
 174:	00 c8       	rjmp	.-4096   	; 0xfffff176 <__eeprom_end+0xff7ef176>
 176:	0c 33       	cpi	r16, 0x3C	; 60
 178:	33 33       	cpi	r19, 0x33	; 51
 17a:	33 0f       	add	r19, r19
 17c:	98 6e       	ori	r25, 0xE8	; 232
 17e:	12 83       	std	Z+2, r17	; 0x02
 180:	11 41       	sbci	r17, 0x11	; 17
 182:	ef 8d       	ldd	r30, Y+31	; 0x1f
 184:	21 14       	cp	r2, r1
 186:	89 3b       	cpi	r24, 0xB9	; 185
 188:	e6 55       	subi	r30, 0x56	; 86
 18a:	16 cf       	rjmp	.-468    	; 0xffffffb8 <__eeprom_end+0xff7effb8>
 18c:	fe e6       	ldi	r31, 0x6E	; 110
 18e:	db 18       	sub	r13, r11
 190:	d1 84       	ldd	r13, Z+9	; 0x09
 192:	4b 38       	cpi	r20, 0x8B	; 139
 194:	1b f7       	brvc	.-58     	; 0x15c <__trampolines_end+0xa8>
 196:	7c 1d       	adc	r23, r12
 198:	90 1d       	adc	r25, r0
 19a:	a4 bb       	out	0x14, r26	; 20
 19c:	e4 24       	eor	r14, r4
 19e:	20 32       	cpi	r18, 0x20	; 32
 1a0:	84 72       	andi	r24, 0x24	; 36
 1a2:	5e 22       	and	r5, r30
 1a4:	81 00       	.word	0x0081	; ????
 1a6:	c9 f1       	breq	.+114    	; 0x21a <ds18b20_read_temp+0x2e>
 1a8:	24 ec       	ldi	r18, 0xC4	; 196
 1aa:	a1 e5       	ldi	r26, 0x51	; 81
 1ac:	3d 27       	eor	r19, r29

000001ae <__ctors_end>:
 1ae:	11 24       	eor	r1, r1
 1b0:	1f be       	out	0x3f, r1	; 63
 1b2:	cf ef       	ldi	r28, 0xFF	; 255
 1b4:	d8 e0       	ldi	r29, 0x08	; 8
 1b6:	de bf       	out	0x3e, r29	; 62
 1b8:	cd bf       	out	0x3d, r28	; 61

000001ba <__do_copy_data>:
 1ba:	11 e0       	ldi	r17, 0x01	; 1
 1bc:	a0 e0       	ldi	r26, 0x00	; 0
 1be:	b1 e0       	ldi	r27, 0x01	; 1
 1c0:	ee ed       	ldi	r30, 0xDE	; 222
 1c2:	fd e0       	ldi	r31, 0x0D	; 13
 1c4:	02 c0       	rjmp	.+4      	; 0x1ca <__do_copy_data+0x10>
 1c6:	05 90       	lpm	r0, Z+
 1c8:	0d 92       	st	X+, r0
 1ca:	a6 33       	cpi	r26, 0x36	; 54
 1cc:	b1 07       	cpc	r27, r17
 1ce:	d9 f7       	brne	.-10     	; 0x1c6 <__do_copy_data+0xc>

000001d0 <__do_clear_bss>:
 1d0:	21 e0       	ldi	r18, 0x01	; 1
 1d2:	a6 e3       	ldi	r26, 0x36	; 54
 1d4:	b1 e0       	ldi	r27, 0x01	; 1
 1d6:	01 c0       	rjmp	.+2      	; 0x1da <.do_clear_bss_start>

000001d8 <.do_clear_bss_loop>:
 1d8:	1d 92       	st	X+, r1

000001da <.do_clear_bss_start>:
 1da:	a4 3c       	cpi	r26, 0xC4	; 196
 1dc:	b2 07       	cpc	r27, r18
 1de:	e1 f7       	brne	.-8      	; 0x1d8 <.do_clear_bss_loop>
 1e0:	0e 94 27 01 	call	0x24e	; 0x24e <main>
 1e4:	0c 94 ed 06 	jmp	0xdda	; 0xdda <_exit>

000001e8 <__bad_interrupt>:
 1e8:	0c 94 00 00 	jmp	0	; 0x0 <__vectors>

000001ec <ds18b20_read_temp>:
#define CMD_SKIP_ROM        0xCC
#define CMD_CONVERT_T       0x44
#define CMD_READ_SCRATCHPAD 0xBE

uint8_t ds18b20_read_temp(int16_t *temp)
{
 1ec:	1f 93       	push	r17
 1ee:	cf 93       	push	r28
 1f0:	df 93       	push	r29
 1f2:	ec 01       	movw	r28, r24
	if(!onewire_reset())
 1f4:	0e 94 6e 01 	call	0x2dc	; 0x2dc <onewire_reset>
 1f8:	88 23       	and	r24, r24
 1fa:	29 f1       	breq	.+74     	; 0x246 <ds18b20_read_temp+0x5a>
	return 0; // brak sensora

	onewire_writebyte(CMD_SKIP_ROM);
 1fc:	8c ec       	ldi	r24, 0xCC	; 204
 1fe:	0e 94 c4 01 	call	0x388	; 0x388 <onewire_writebyte>
	onewire_writebyte(CMD_CONVERT_T);
 202:	84 e4       	ldi	r24, 0x44	; 68
 204:	0e 94 c4 01 	call	0x388	; 0x388 <onewire_writebyte>
	#else
		//round up by default
		__ticks_dc = (uint32_t)(ceil(fabs(__tmp)));
	#endif

	__builtin_avr_delay_cycles(__ticks_dc);
 208:	2f ef       	ldi	r18, 0xFF	; 255
 20a:	8e e9       	ldi	r24, 0x9E	; 158
 20c:	94 e2       	ldi	r25, 0x24	; 36
 20e:	21 50       	subi	r18, 0x01	; 1
 210:	80 40       	sbci	r24, 0x00	; 0
 212:	90 40       	sbci	r25, 0x00	; 0
 214:	e1 f7       	brne	.-8      	; 0x20e <ds18b20_read_temp+0x22>
 216:	00 c0       	rjmp	.+0      	; 0x218 <ds18b20_read_temp+0x2c>
 218:	00 00       	nop

	// DS18B20 potrzebuje do 750ms
	_delay_ms(750);

	if(!onewire_reset())
 21a:	0e 94 6e 01 	call	0x2dc	; 0x2dc <onewire_reset>
 21e:	88 23       	and	r24, r24
 220:	91 f0       	breq	.+36     	; 0x246 <ds18b20_read_temp+0x5a>
	return 0;

	onewire_writebyte(CMD_SKIP_ROM);
 222:	8c ec       	ldi	r24, 0xCC	; 204
 224:	0e 94 c4 01 	call	0x388	; 0x388 <onewire_writebyte>
	onewire_writebyte(CMD_READ_SCRATCHPAD);
 228:	8e eb       	ldi	r24, 0xBE	; 190
 22a:	0e 94 c4 01 	call	0x388	; 0x388 <onewire_writebyte>

	uint8_t lsb = onewire_readbyte();
 22e:	0e 94 da 01 	call	0x3b4	; 0x3b4 <onewire_readbyte>
 232:	18 2f       	mov	r17, r24
	uint8_t msb = onewire_readbyte();
 234:	0e 94 da 01 	call	0x3b4	; 0x3b4 <onewire_readbyte>

	*temp = (msb << 8) | lsb;
 238:	90 e0       	ldi	r25, 0x00	; 0
 23a:	98 2f       	mov	r25, r24
 23c:	88 27       	eor	r24, r24
 23e:	81 2b       	or	r24, r17
 240:	99 83       	std	Y+1, r25	; 0x01
 242:	88 83       	st	Y, r24
	return 1;
 244:	81 e0       	ldi	r24, 0x01	; 1
 246:	df 91       	pop	r29
 248:	cf 91       	pop	r28
 24a:	1f 91       	pop	r17
 24c:	08 95       	ret

0000024e <main>:

#define BUFF_SIZE   25


int main(void)
{	
 24e:	cf 93       	push	r28
 250:	df 93       	push	r29
 252:	00 d0       	rcall	.+0      	; 0x254 <main+0x6>
 254:	cd b7       	in	r28, 0x3d	; 61
 256:	de b7       	in	r29, 0x3e	; 62
	{
	#ifdef USART0_RS485_MODE
		RS485_CONTROL0_DDR |= (1<<RS485_CONTROL0_IONUM); // default pin state is low
	#endif
		
		UBRR0L_REGISTER = (uint8_t) ubrr_value;
 258:	88 e0       	ldi	r24, 0x08	; 8
 25a:	80 93 c4 00 	sts	0x00C4, r24	; 0x8000c4 <__TEXT_REGION_LENGTH__+0x7f80c4>
		
	#ifdef USART_SKIP_UBRRH_IF_ZERO
		if(__builtin_constant_p(ubrr_value))
			if(((ubrr_value>>8) != 0)) // requires -Os flag - do not use in non-inline functions
	#endif
			UBRR0H_REGISTER = (ubrr_value>>8);
 25e:	10 92 c5 00 	sts	0x00C5, r1	; 0x8000c5 <__TEXT_REGION_LENGTH__+0x7f80c5>
		#endif
	#elif defined(USART0_MPCM_MODE)
		UCSR0A_REGISTER |= (1<<MPCM0_BIT);
	#endif
		
		UCSR0B_REGISTER = USART0_CONFIG_B;
 262:	88 e9       	ldi	r24, 0x98	; 152
 264:	80 93 c1 00 	sts	0x00C1, r24	; 0x8000c1 <__TEXT_REGION_LENGTH__+0x7f80c1>
	//DDRC = 0xFF;
	int16_t temp_raw;
	//uart_set_FrameFormat(USART_8BIT_DATA|USART_1STOP_BIT|USART_NO_PARITY|USART_ASYNC_MODE); // default settings
	uart_init(BAUD_CALC(115200)); // 8n1 transmission is set as default
	
	stdout = &uart0_io; // attach uart stream to stdout & stdin
 268:	ee eb       	ldi	r30, 0xBE	; 190
 26a:	f1 e0       	ldi	r31, 0x01	; 1
 26c:	80 e0       	ldi	r24, 0x00	; 0
 26e:	91 e0       	ldi	r25, 0x01	; 1
 270:	93 83       	std	Z+3, r25	; 0x03
 272:	82 83       	std	Z+2, r24	; 0x02
	stdin = &uart0_io; // uart0_in and uart0_out are only available if NO_USART_RX or NO_USART_TX is defined
 274:	91 83       	std	Z+1, r25	; 0x01
 276:	80 83       	st	Z, r24
	
	sei(); // enable interrupts, library wouldn't work without this
 278:	78 94       	sei
			
	printf("Uart set up correctly\n");
 27a:	8e e0       	ldi	r24, 0x0E	; 14
 27c:	91 e0       	ldi	r25, 0x01	; 1
 27e:	0e 94 54 04 	call	0x8a8	; 0x8a8 <puts>
	
	int a = 0;
	
	while(1)
	{	
			if(ds18b20_read_temp(&temp_raw))
 282:	ce 01       	movw	r24, r28
 284:	01 96       	adiw	r24, 0x01	; 1
 286:	0e 94 f6 00 	call	0x1ec	; 0x1ec <ds18b20_read_temp>
 28a:	89 2b       	or	r24, r25
 28c:	a9 f0       	breq	.+42     	; 0x2b8 <main+0x6a>
			{
				float tempC = temp_raw / 16.0;
 28e:	69 81       	ldd	r22, Y+1	; 0x01
 290:	7a 81       	ldd	r23, Y+2	; 0x02
 292:	07 2e       	mov	r0, r23
 294:	00 0c       	add	r0, r0
 296:	88 0b       	sbc	r24, r24
 298:	99 0b       	sbc	r25, r25
 29a:	0e 94 3b 03 	call	0x676	; 0x676 <__floatsisf>
 29e:	20 e0       	ldi	r18, 0x00	; 0
 2a0:	30 e0       	ldi	r19, 0x00	; 0
 2a2:	40 e8       	ldi	r20, 0x80	; 128
 2a4:	5d e3       	ldi	r21, 0x3D	; 61
 2a6:	0e 94 76 03 	call	0x6ec	; 0x6ec <__mulsf3>
			//	tempC = roundf(tempC * 100.0f) / 100.0f;
				uart_putfloat(tempC);
 2aa:	0e 94 1f 02 	call	0x43e	; 0x43e <uart0_putfloat>
				uart_puts("\r\n");
 2ae:	84 e2       	ldi	r24, 0x24	; 36
 2b0:	91 e0       	ldi	r25, 0x01	; 1
 2b2:	0e 94 10 02 	call	0x420	; 0x420 <uart0_putstr>
 2b6:	08 c0       	rjmp	.+16     	; 0x2c8 <main+0x7a>
					
				}
				else
				{
					uart_puts("Cos nie pyklo");
 2b8:	87 e2       	ldi	r24, 0x27	; 39
 2ba:	91 e0       	ldi	r25, 0x01	; 1
 2bc:	0e 94 10 02 	call	0x420	; 0x420 <uart0_putstr>
					uart_puts("\r\n");
 2c0:	84 e2       	ldi	r24, 0x24	; 36
 2c2:	91 e0       	ldi	r25, 0x01	; 1
 2c4:	0e 94 10 02 	call	0x420	; 0x420 <uart0_putstr>
 2c8:	2f e3       	ldi	r18, 0x3F	; 63
 2ca:	82 e4       	ldi	r24, 0x42	; 66
 2cc:	9f e0       	ldi	r25, 0x0F	; 15
 2ce:	21 50       	subi	r18, 0x01	; 1
 2d0:	80 40       	sbci	r24, 0x00	; 0
 2d2:	90 40       	sbci	r25, 0x00	; 0
 2d4:	e1 f7       	brne	.-8      	; 0x2ce <main+0x80>
 2d6:	00 c0       	rjmp	.+0      	; 0x2d8 <main+0x8a>
 2d8:	00 00       	nop
 2da:	d3 cf       	rjmp	.-90     	; 0x282 <main+0x34>

000002dc <onewire_reset>:

uint8_t onewire_reset(void)
{
	uint8_t r;

	ONEWIRE_DDR |=  (1 << ONEWIRE_BIT);   // linia jako wyjście
 2dc:	8a b1       	in	r24, 0x0a	; 10
 2de:	84 60       	ori	r24, 0x04	; 4
 2e0:	8a b9       	out	0x0a, r24	; 10
	ONEWIRE_PORT &= ~(1 << ONEWIRE_BIT);  // 0
 2e2:	8b b1       	in	r24, 0x0b	; 11
 2e4:	8b 7f       	andi	r24, 0xFB	; 251
 2e6:	8b b9       	out	0x0b, r24	; 11
	#else
		//round up by default
		__ticks_dc = (uint32_t)(ceil(fabs(__tmp)));
	#endif

	__builtin_avr_delay_cycles(__ticks_dc);
 2e8:	8f e7       	ldi	r24, 0x7F	; 127
 2ea:	97 e0       	ldi	r25, 0x07	; 7
 2ec:	01 97       	sbiw	r24, 0x01	; 1
 2ee:	f1 f7       	brne	.-4      	; 0x2ec <onewire_reset+0x10>
 2f0:	00 c0       	rjmp	.+0      	; 0x2f2 <onewire_reset+0x16>
 2f2:	00 00       	nop
	_delay_us(480);

	ONEWIRE_DDR &= ~(1 << ONEWIRE_BIT);   // wejście
 2f4:	8a b1       	in	r24, 0x0a	; 10
 2f6:	8b 7f       	andi	r24, 0xFB	; 251
 2f8:	8a b9       	out	0x0a, r24	; 10
 2fa:	e7 e1       	ldi	r30, 0x17	; 23
 2fc:	f1 e0       	ldi	r31, 0x01	; 1
 2fe:	31 97       	sbiw	r30, 0x01	; 1
 300:	f1 f7       	brne	.-4      	; 0x2fe <onewire_reset+0x22>
 302:	00 c0       	rjmp	.+0      	; 0x304 <onewire_reset+0x28>
 304:	00 00       	nop
	_delay_us(70);

	r = (ONEWIRE_PINR & (1 << ONEWIRE_BIT)); // presence
 306:	99 b1       	in	r25, 0x09	; 9
 308:	94 70       	andi	r25, 0x04	; 4
 30a:	e7 e6       	ldi	r30, 0x67	; 103
 30c:	f6 e0       	ldi	r31, 0x06	; 6
 30e:	31 97       	sbiw	r30, 0x01	; 1
 310:	f1 f7       	brne	.-4      	; 0x30e <onewire_reset+0x32>
 312:	00 c0       	rjmp	.+0      	; 0x314 <onewire_reset+0x38>
 314:	00 00       	nop

	_delay_us(410);
	return (r == 0); // 1 = sensor obecny
 316:	81 e0       	ldi	r24, 0x01	; 1
 318:	91 11       	cpse	r25, r1
 31a:	80 e0       	ldi	r24, 0x00	; 0
}
 31c:	08 95       	ret

0000031e <onewire_writebit>:

void onewire_writebit(uint8_t bit)
{
	ONEWIRE_DDR |=  (1 << ONEWIRE_BIT);
 31e:	9a b1       	in	r25, 0x0a	; 10
 320:	94 60       	ori	r25, 0x04	; 4
 322:	9a b9       	out	0x0a, r25	; 10
	ONEWIRE_PORT &= ~(1 << ONEWIRE_BIT);
 324:	9b b1       	in	r25, 0x0b	; 11
 326:	9b 7f       	andi	r25, 0xFB	; 251
 328:	9b b9       	out	0x0b, r25	; 11
 32a:	9a e0       	ldi	r25, 0x0A	; 10
 32c:	9a 95       	dec	r25
 32e:	f1 f7       	brne	.-4      	; 0x32c <onewire_writebit+0xe>
 330:	00 c0       	rjmp	.+0      	; 0x332 <onewire_writebit+0x14>
	_delay_us(2);

	if(bit)
 332:	88 23       	and	r24, r24
 334:	19 f0       	breq	.+6      	; 0x33c <onewire_writebit+0x1e>
	ONEWIRE_DDR &= ~(1 << ONEWIRE_BIT);
 336:	8a b1       	in	r24, 0x0a	; 10
 338:	8b 7f       	andi	r24, 0xFB	; 251
 33a:	8a b9       	out	0x0a, r24	; 10
 33c:	8f ee       	ldi	r24, 0xEF	; 239
 33e:	90 e0       	ldi	r25, 0x00	; 0
 340:	01 97       	sbiw	r24, 0x01	; 1
 342:	f1 f7       	brne	.-4      	; 0x340 <onewire_writebit+0x22>
 344:	00 c0       	rjmp	.+0      	; 0x346 <onewire_writebit+0x28>
 346:	00 00       	nop

	_delay_us(60);
	ONEWIRE_DDR &= ~(1 << ONEWIRE_BIT);
 348:	8a b1       	in	r24, 0x0a	; 10
 34a:	8b 7f       	andi	r24, 0xFB	; 251
 34c:	8a b9       	out	0x0a, r24	; 10
 34e:	08 95       	ret

00000350 <onewire_readbit>:

uint8_t onewire_readbit(void)
{
	uint8_t r;

	ONEWIRE_DDR |=  (1 << ONEWIRE_BIT);
 350:	8a b1       	in	r24, 0x0a	; 10
 352:	84 60       	ori	r24, 0x04	; 4
 354:	8a b9       	out	0x0a, r24	; 10
	ONEWIRE_PORT &= ~(1 << ONEWIRE_BIT);
 356:	8b b1       	in	r24, 0x0b	; 11
 358:	8b 7f       	andi	r24, 0xFB	; 251
 35a:	8b b9       	out	0x0b, r24	; 11
 35c:	8a e0       	ldi	r24, 0x0A	; 10
 35e:	8a 95       	dec	r24
 360:	f1 f7       	brne	.-4      	; 0x35e <onewire_readbit+0xe>
 362:	00 c0       	rjmp	.+0      	; 0x364 <onewire_readbit+0x14>
	_delay_us(2);

	ONEWIRE_DDR &= ~(1 << ONEWIRE_BIT);
 364:	8a b1       	in	r24, 0x0a	; 10
 366:	8b 7f       	andi	r24, 0xFB	; 251
 368:	8a b9       	out	0x0a, r24	; 10
 36a:	e5 e3       	ldi	r30, 0x35	; 53
 36c:	ea 95       	dec	r30
 36e:	f1 f7       	brne	.-4      	; 0x36c <onewire_readbit+0x1c>
 370:	00 00       	nop
	_delay_us(10);

	r = (ONEWIRE_PINR & (1 << ONEWIRE_BIT)) != 0;
 372:	89 b1       	in	r24, 0x09	; 9
 374:	82 fb       	bst	r24, 2
 376:	88 27       	eor	r24, r24
 378:	80 f9       	bld	r24, 0
 37a:	e7 ec       	ldi	r30, 0xC7	; 199
 37c:	f0 e0       	ldi	r31, 0x00	; 0
 37e:	31 97       	sbiw	r30, 0x01	; 1
 380:	f1 f7       	brne	.-4      	; 0x37e <onewire_readbit+0x2e>
 382:	00 c0       	rjmp	.+0      	; 0x384 <onewire_readbit+0x34>
 384:	00 00       	nop

	_delay_us(50);
	return r;
}
 386:	08 95       	ret

00000388 <onewire_writebyte>:

void onewire_writebyte(uint8_t byte)
{
 388:	cf 93       	push	r28
 38a:	df 93       	push	r29
 38c:	d8 2f       	mov	r29, r24
	for(uint8_t i=0;i<8;i++)
 38e:	c0 e0       	ldi	r28, 0x00	; 0
 390:	0c c0       	rjmp	.+24     	; 0x3aa <onewire_writebyte+0x22>
	onewire_writebit(byte & (1<<i));
 392:	81 e0       	ldi	r24, 0x01	; 1
 394:	90 e0       	ldi	r25, 0x00	; 0
 396:	0c 2e       	mov	r0, r28
 398:	02 c0       	rjmp	.+4      	; 0x39e <onewire_writebyte+0x16>
 39a:	88 0f       	add	r24, r24
 39c:	99 1f       	adc	r25, r25
 39e:	0a 94       	dec	r0
 3a0:	e2 f7       	brpl	.-8      	; 0x39a <onewire_writebyte+0x12>
 3a2:	8d 23       	and	r24, r29
 3a4:	0e 94 8f 01 	call	0x31e	; 0x31e <onewire_writebit>
	return r;
}

void onewire_writebyte(uint8_t byte)
{
	for(uint8_t i=0;i<8;i++)
 3a8:	cf 5f       	subi	r28, 0xFF	; 255
 3aa:	c8 30       	cpi	r28, 0x08	; 8
 3ac:	90 f3       	brcs	.-28     	; 0x392 <onewire_writebyte+0xa>
	onewire_writebit(byte & (1<<i));
}
 3ae:	df 91       	pop	r29
 3b0:	cf 91       	pop	r28
 3b2:	08 95       	ret

000003b4 <onewire_readbyte>:

uint8_t onewire_readbyte(void)
{
 3b4:	cf 93       	push	r28
 3b6:	df 93       	push	r29
	uint8_t b = 0;
	for(uint8_t i=0;i<8;i++)
 3b8:	c0 e0       	ldi	r28, 0x00	; 0
	onewire_writebit(byte & (1<<i));
}

uint8_t onewire_readbyte(void)
{
	uint8_t b = 0;
 3ba:	d0 e0       	ldi	r29, 0x00	; 0
	for(uint8_t i=0;i<8;i++)
 3bc:	0e c0       	rjmp	.+28     	; 0x3da <onewire_readbyte+0x26>
	if(onewire_readbit())
 3be:	0e 94 a8 01 	call	0x350	; 0x350 <onewire_readbit>
 3c2:	88 23       	and	r24, r24
 3c4:	49 f0       	breq	.+18     	; 0x3d8 <onewire_readbyte+0x24>
	b |= (1<<i);
 3c6:	81 e0       	ldi	r24, 0x01	; 1
 3c8:	90 e0       	ldi	r25, 0x00	; 0
 3ca:	0c 2e       	mov	r0, r28
 3cc:	02 c0       	rjmp	.+4      	; 0x3d2 <onewire_readbyte+0x1e>
 3ce:	88 0f       	add	r24, r24
 3d0:	99 1f       	adc	r25, r25
 3d2:	0a 94       	dec	r0
 3d4:	e2 f7       	brpl	.-8      	; 0x3ce <onewire_readbyte+0x1a>
 3d6:	d8 2b       	or	r29, r24
}

uint8_t onewire_readbyte(void)
{
	uint8_t b = 0;
	for(uint8_t i=0;i<8;i++)
 3d8:	cf 5f       	subi	r28, 0xFF	; 255
 3da:	c8 30       	cpi	r28, 0x08	; 8
 3dc:	80 f3       	brcs	.-32     	; 0x3be <onewire_readbyte+0xa>
	if(onewire_readbit())
	b |= (1<<i);
	return b;
}
 3de:	8d 2f       	mov	r24, r29
 3e0:	df 91       	pop	r29
 3e2:	cf 91       	pop	r28
 3e4:	08 95       	ret

000003e6 <uart0_putc>:
 3e6:	90 91 79 01 	lds	r25, 0x0179	; 0x800179 <tx0_Head>
 3ea:	9f 5f       	subi	r25, 0xFF	; 255
 3ec:	9f 71       	andi	r25, 0x1F	; 31
 3ee:	20 91 57 01 	lds	r18, 0x0157	; 0x800157 <tx0_Tail>
 3f2:	92 17       	cp	r25, r18
 3f4:	e1 f3       	breq	.-8      	; 0x3ee <uart0_putc+0x8>
 3f6:	e9 2f       	mov	r30, r25
 3f8:	f0 e0       	ldi	r31, 0x00	; 0
 3fa:	e2 56       	subi	r30, 0x62	; 98
 3fc:	fe 4f       	sbci	r31, 0xFE	; 254
 3fe:	80 83       	st	Z, r24
 400:	2f b7       	in	r18, 0x3f	; 63
 402:	f8 94       	cli
 404:	81 e0       	ldi	r24, 0x01	; 1
 406:	08 c0       	rjmp	.+16     	; 0x418 <__EEPROM_REGION_LENGTH__+0x18>
 408:	90 93 79 01 	sts	0x0179, r25	; 0x800179 <tx0_Head>
 40c:	e1 ec       	ldi	r30, 0xC1	; 193
 40e:	f0 e0       	ldi	r31, 0x00	; 0
 410:	80 81       	ld	r24, Z
 412:	80 62       	ori	r24, 0x20	; 32
 414:	80 83       	st	Z, r24
 416:	80 e0       	ldi	r24, 0x00	; 0
 418:	81 11       	cpse	r24, r1
 41a:	f6 cf       	rjmp	.-20     	; 0x408 <__EEPROM_REGION_LENGTH__+0x8>
 41c:	2f bf       	out	0x3f, r18	; 63
 41e:	08 95       	ret

00000420 <uart0_putstr>:
 420:	cf 93       	push	r28
 422:	df 93       	push	r29
 424:	fc 01       	movw	r30, r24
 426:	03 c0       	rjmp	.+6      	; 0x42e <uart0_putstr+0xe>
 428:	0e 94 f3 01 	call	0x3e6	; 0x3e6 <uart0_putc>
 42c:	fe 01       	movw	r30, r28
 42e:	ef 01       	movw	r28, r30
 430:	21 96       	adiw	r28, 0x01	; 1
 432:	80 81       	ld	r24, Z
 434:	81 11       	cpse	r24, r1
 436:	f8 cf       	rjmp	.-16     	; 0x428 <uart0_putstr+0x8>
 438:	df 91       	pop	r29
 43a:	cf 91       	pop	r28
 43c:	08 95       	ret

0000043e <uart0_putfloat>:
 43e:	0f 93       	push	r16
 440:	1f 93       	push	r17
 442:	cf 93       	push	r28
 444:	df 93       	push	r29
 446:	cd b7       	in	r28, 0x3d	; 61
 448:	de b7       	in	r29, 0x3e	; 62
 44a:	60 97       	sbiw	r28, 0x10	; 16
 44c:	0f b6       	in	r0, 0x3f	; 63
 44e:	f8 94       	cli
 450:	de bf       	out	0x3e, r29	; 62
 452:	0f be       	out	0x3f, r0	; 63
 454:	cd bf       	out	0x3d, r28	; 61
 456:	8e 01       	movw	r16, r28
 458:	0f 5f       	subi	r16, 0xFF	; 255
 45a:	1f 4f       	sbci	r17, 0xFF	; 255
 45c:	26 e0       	ldi	r18, 0x06	; 6
 45e:	4f e0       	ldi	r20, 0x0F	; 15
 460:	0e 94 34 04 	call	0x868	; 0x868 <dtostrf>
 464:	f8 01       	movw	r30, r16
 466:	01 c0       	rjmp	.+2      	; 0x46a <uart0_putfloat+0x2c>
 468:	31 96       	adiw	r30, 0x01	; 1
 46a:	80 81       	ld	r24, Z
 46c:	80 32       	cpi	r24, 0x20	; 32
 46e:	e1 f3       	breq	.-8      	; 0x468 <uart0_putfloat+0x2a>
 470:	cf 01       	movw	r24, r30
 472:	0e 94 10 02 	call	0x420	; 0x420 <uart0_putstr>
 476:	60 96       	adiw	r28, 0x10	; 16
 478:	0f b6       	in	r0, 0x3f	; 63
 47a:	f8 94       	cli
 47c:	de bf       	out	0x3e, r29	; 62
 47e:	0f be       	out	0x3f, r0	; 63
 480:	cd bf       	out	0x3d, r28	; 61
 482:	df 91       	pop	r29
 484:	cf 91       	pop	r28
 486:	1f 91       	pop	r17
 488:	0f 91       	pop	r16
 48a:	08 95       	ret

0000048c <uart1_putc>:
 48c:	90 91 9d 01 	lds	r25, 0x019D	; 0x80019d <tx1_Head>
 490:	9f 5f       	subi	r25, 0xFF	; 255
 492:	9f 71       	andi	r25, 0x1F	; 31
 494:	20 91 9b 01 	lds	r18, 0x019B	; 0x80019b <tx1_Tail>
 498:	92 17       	cp	r25, r18
 49a:	e1 f3       	breq	.-8      	; 0x494 <uart1_putc+0x8>
 49c:	e9 2f       	mov	r30, r25
 49e:	f0 e0       	ldi	r31, 0x00	; 0
 4a0:	e7 5a       	subi	r30, 0xA7	; 167
 4a2:	fe 4f       	sbci	r31, 0xFE	; 254
 4a4:	80 83       	st	Z, r24
 4a6:	2f b7       	in	r18, 0x3f	; 63
 4a8:	f8 94       	cli
 4aa:	81 e0       	ldi	r24, 0x01	; 1
 4ac:	08 c0       	rjmp	.+16     	; 0x4be <uart1_putc+0x32>
 4ae:	90 93 9d 01 	sts	0x019D, r25	; 0x80019d <tx1_Head>
 4b2:	e9 ec       	ldi	r30, 0xC9	; 201
 4b4:	f0 e0       	ldi	r31, 0x00	; 0
 4b6:	80 81       	ld	r24, Z
 4b8:	80 62       	ori	r24, 0x20	; 32
 4ba:	80 83       	st	Z, r24
 4bc:	80 e0       	ldi	r24, 0x00	; 0
 4be:	81 11       	cpse	r24, r1
 4c0:	f6 cf       	rjmp	.-20     	; 0x4ae <uart1_putc+0x22>
 4c2:	2f bf       	out	0x3f, r18	; 63
 4c4:	08 95       	ret

000004c6 <uart_putchar>:
 4c6:	cf 93       	push	r28
 4c8:	c8 2f       	mov	r28, r24
 4ca:	fb 01       	movw	r30, r22
 4cc:	84 85       	ldd	r24, Z+12	; 0x0c
 4ce:	95 85       	ldd	r25, Z+13	; 0x0d
 4d0:	01 97       	sbiw	r24, 0x01	; 1
 4d2:	49 f0       	breq	.+18     	; 0x4e6 <uart_putchar+0x20>
 4d4:	ca 30       	cpi	r28, 0x0A	; 10
 4d6:	19 f4       	brne	.+6      	; 0x4de <uart_putchar+0x18>
 4d8:	8d e0       	ldi	r24, 0x0D	; 13
 4da:	0e 94 f3 01 	call	0x3e6	; 0x3e6 <uart0_putc>
 4de:	8c 2f       	mov	r24, r28
 4e0:	0e 94 f3 01 	call	0x3e6	; 0x3e6 <uart0_putc>
 4e4:	08 c0       	rjmp	.+16     	; 0x4f6 <uart_putchar+0x30>
 4e6:	ca 30       	cpi	r28, 0x0A	; 10
 4e8:	19 f4       	brne	.+6      	; 0x4f0 <uart_putchar+0x2a>
 4ea:	8d e0       	ldi	r24, 0x0D	; 13
 4ec:	0e 94 46 02 	call	0x48c	; 0x48c <uart1_putc>
 4f0:	8c 2f       	mov	r24, r28
 4f2:	0e 94 46 02 	call	0x48c	; 0x48c <uart1_putc>
 4f6:	80 e0       	ldi	r24, 0x00	; 0
 4f8:	90 e0       	ldi	r25, 0x00	; 0
 4fa:	cf 91       	pop	r28
 4fc:	08 95       	ret

000004fe <uart0_getData>:
 4fe:	80 91 58 01 	lds	r24, 0x0158	; 0x800158 <rx0_Tail>
 502:	90 91 9a 01 	lds	r25, 0x019A	; 0x80019a <rx0_Head>
 506:	89 17       	cp	r24, r25
 508:	61 f0       	breq	.+24     	; 0x522 <uart0_getData+0x24>
 50a:	8f 5f       	subi	r24, 0xFF	; 255
 50c:	8f 71       	andi	r24, 0x1F	; 31
 50e:	e8 2f       	mov	r30, r24
 510:	f0 e0       	ldi	r31, 0x00	; 0
 512:	ea 5c       	subi	r30, 0xCA	; 202
 514:	fe 4f       	sbci	r31, 0xFE	; 254
 516:	90 81       	ld	r25, Z
 518:	80 93 58 01 	sts	0x0158, r24	; 0x800158 <rx0_Tail>
 51c:	89 2f       	mov	r24, r25
 51e:	90 e0       	ldi	r25, 0x00	; 0
 520:	08 95       	ret
 522:	8f ef       	ldi	r24, 0xFF	; 255
 524:	9f ef       	ldi	r25, 0xFF	; 255
 526:	08 95       	ret

00000528 <uart1_getData>:
 528:	80 91 56 01 	lds	r24, 0x0156	; 0x800156 <rx1_Tail>
 52c:	90 91 9c 01 	lds	r25, 0x019C	; 0x80019c <rx1_Head>
 530:	89 17       	cp	r24, r25
 532:	61 f0       	breq	.+24     	; 0x54c <uart1_getData+0x24>
 534:	8f 5f       	subi	r24, 0xFF	; 255
 536:	8f 71       	andi	r24, 0x1F	; 31
 538:	e8 2f       	mov	r30, r24
 53a:	f0 e0       	ldi	r31, 0x00	; 0
 53c:	e6 58       	subi	r30, 0x86	; 134
 53e:	fe 4f       	sbci	r31, 0xFE	; 254
 540:	90 81       	ld	r25, Z
 542:	80 93 56 01 	sts	0x0156, r24	; 0x800156 <rx1_Tail>
 546:	89 2f       	mov	r24, r25
 548:	90 e0       	ldi	r25, 0x00	; 0
 54a:	08 95       	ret
 54c:	8f ef       	ldi	r24, 0xFF	; 255
 54e:	9f ef       	ldi	r25, 0xFF	; 255
 550:	08 95       	ret

00000552 <uart_getchar>:
 552:	cf 93       	push	r28
 554:	df 93       	push	r29
 556:	fc 01       	movw	r30, r24
 558:	84 85       	ldd	r24, Z+12	; 0x0c
 55a:	95 85       	ldd	r25, Z+13	; 0x0d
 55c:	01 97       	sbiw	r24, 0x01	; 1
 55e:	51 f0       	breq	.+20     	; 0x574 <uart_getchar+0x22>
 560:	0e 94 7f 02 	call	0x4fe	; 0x4fe <uart0_getData>
 564:	ec 01       	movw	r28, r24
 566:	99 23       	and	r25, r25
 568:	dc f3       	brlt	.-10     	; 0x560 <uart_getchar+0xe>
 56a:	0e 94 f3 01 	call	0x3e6	; 0x3e6 <uart0_putc>
 56e:	ce 01       	movw	r24, r28
 570:	99 27       	eor	r25, r25
 572:	09 c0       	rjmp	.+18     	; 0x586 <uart_getchar+0x34>
 574:	0e 94 94 02 	call	0x528	; 0x528 <uart1_getData>
 578:	ec 01       	movw	r28, r24
 57a:	99 23       	and	r25, r25
 57c:	dc f3       	brlt	.-10     	; 0x574 <uart_getchar+0x22>
 57e:	0e 94 46 02 	call	0x48c	; 0x48c <uart1_putc>
 582:	ce 01       	movw	r24, r28
 584:	99 27       	eor	r25, r25
 586:	99 27       	eor	r25, r25
 588:	df 91       	pop	r29
 58a:	cf 91       	pop	r28
 58c:	08 95       	ret

0000058e <__vector_19>:
 58e:	0f 93       	push	r16
 590:	0f b7       	in	r16, 0x3f	; 63
 592:	ef 93       	push	r30
 594:	ff 93       	push	r31
 596:	e0 91 57 01 	lds	r30, 0x0157	; 0x800157 <tx0_Tail>
 59a:	f0 91 79 01 	lds	r31, 0x0179	; 0x800179 <tx0_Head>
 59e:	e3 95       	inc	r30
 5a0:	ef 71       	andi	r30, 0x1F	; 31
 5a2:	ef 13       	cpse	r30, r31
 5a4:	05 c0       	rjmp	.+10     	; 0x5b0 <USART0_TX_CONTINUE>
 5a6:	f0 91 c1 00 	lds	r31, 0x00C1	; 0x8000c1 <__TEXT_REGION_LENGTH__+0x7f80c1>
 5aa:	ff 7d       	andi	r31, 0xDF	; 223
 5ac:	f0 93 c1 00 	sts	0x00C1, r31	; 0x8000c1 <__TEXT_REGION_LENGTH__+0x7f80c1>

000005b0 <USART0_TX_CONTINUE>:
 5b0:	e0 93 57 01 	sts	0x0157, r30	; 0x800157 <tx0_Tail>
 5b4:	f0 e0       	ldi	r31, 0x00	; 0
 5b6:	e2 56       	subi	r30, 0x62	; 98
 5b8:	fe 4f       	sbci	r31, 0xFE	; 254
 5ba:	e0 81       	ld	r30, Z
 5bc:	e0 93 c6 00 	sts	0x00C6, r30	; 0x8000c6 <__TEXT_REGION_LENGTH__+0x7f80c6>

000005c0 <USART0_TX_EXIT>:
 5c0:	ff 91       	pop	r31
 5c2:	ef 91       	pop	r30
 5c4:	0f bf       	out	0x3f, r16	; 63
 5c6:	0f 91       	pop	r16
 5c8:	18 95       	reti

000005ca <__vector_18>:
 5ca:	0f 93       	push	r16
 5cc:	0f b7       	in	r16, 0x3f	; 63
 5ce:	9f 93       	push	r25
 5d0:	90 91 c6 00 	lds	r25, 0x00C6	; 0x8000c6 <__TEXT_REGION_LENGTH__+0x7f80c6>
 5d4:	ef 93       	push	r30
 5d6:	ff 93       	push	r31
 5d8:	e0 91 9a 01 	lds	r30, 0x019A	; 0x80019a <rx0_Head>
 5dc:	f0 91 58 01 	lds	r31, 0x0158	; 0x800158 <rx0_Tail>
 5e0:	e3 95       	inc	r30
 5e2:	ef 71       	andi	r30, 0x1F	; 31
 5e4:	fe 17       	cp	r31, r30
 5e6:	31 f0       	breq	.+12     	; 0x5f4 <USART0_RX_EXIT>
 5e8:	e0 93 9a 01 	sts	0x019A, r30	; 0x80019a <rx0_Head>
 5ec:	f0 e0       	ldi	r31, 0x00	; 0
 5ee:	ea 5c       	subi	r30, 0xCA	; 202
 5f0:	fe 4f       	sbci	r31, 0xFE	; 254
 5f2:	90 83       	st	Z, r25

000005f4 <USART0_RX_EXIT>:
 5f4:	ff 91       	pop	r31
 5f6:	ef 91       	pop	r30
 5f8:	9f 91       	pop	r25
 5fa:	0f bf       	out	0x3f, r16	; 63
 5fc:	0f 91       	pop	r16
 5fe:	18 95       	reti

00000600 <__vector_29>:
 600:	0f 93       	push	r16
 602:	0f b7       	in	r16, 0x3f	; 63
 604:	ef 93       	push	r30
 606:	ff 93       	push	r31
 608:	e0 91 9b 01 	lds	r30, 0x019B	; 0x80019b <tx1_Tail>
 60c:	f0 91 9d 01 	lds	r31, 0x019D	; 0x80019d <tx1_Head>
 610:	e3 95       	inc	r30
 612:	ef 71       	andi	r30, 0x1F	; 31
 614:	ef 13       	cpse	r30, r31
 616:	05 c0       	rjmp	.+10     	; 0x622 <USART1_TX_CONTINUE>
 618:	f0 91 c9 00 	lds	r31, 0x00C9	; 0x8000c9 <__TEXT_REGION_LENGTH__+0x7f80c9>
 61c:	ff 7d       	andi	r31, 0xDF	; 223
 61e:	f0 93 c9 00 	sts	0x00C9, r31	; 0x8000c9 <__TEXT_REGION_LENGTH__+0x7f80c9>

00000622 <USART1_TX_CONTINUE>:
 622:	e0 93 9b 01 	sts	0x019B, r30	; 0x80019b <tx1_Tail>
 626:	f0 e0       	ldi	r31, 0x00	; 0
 628:	e7 5a       	subi	r30, 0xA7	; 167
 62a:	fe 4f       	sbci	r31, 0xFE	; 254
 62c:	e0 81       	ld	r30, Z
 62e:	e0 93 ce 00 	sts	0x00CE, r30	; 0x8000ce <__TEXT_REGION_LENGTH__+0x7f80ce>

00000632 <USART1_TX_EXIT>:
 632:	ff 91       	pop	r31
 634:	ef 91       	pop	r30
 636:	0f bf       	out	0x3f, r16	; 63
 638:	0f 91       	pop	r16
 63a:	18 95       	reti

0000063c <__vector_28>:
 63c:	0f 93       	push	r16
 63e:	0f b7       	in	r16, 0x3f	; 63
 640:	9f 93       	push	r25
 642:	90 91 ce 00 	lds	r25, 0x00CE	; 0x8000ce <__TEXT_REGION_LENGTH__+0x7f80ce>
 646:	ef 93       	push	r30
 648:	ff 93       	push	r31
 64a:	e0 91 9c 01 	lds	r30, 0x019C	; 0x80019c <rx1_Head>
 64e:	f0 91 56 01 	lds	r31, 0x0156	; 0x800156 <rx1_Tail>
 652:	e3 95       	inc	r30
 654:	ef 71       	andi	r30, 0x1F	; 31
 656:	fe 17       	cp	r31, r30
 658:	31 f0       	breq	.+12     	; 0x666 <USART1_RX_EXIT>
 65a:	e0 93 9c 01 	sts	0x019C, r30	; 0x80019c <rx1_Head>
 65e:	f0 e0       	ldi	r31, 0x00	; 0
 660:	e6 58       	subi	r30, 0x86	; 134
 662:	fe 4f       	sbci	r31, 0xFE	; 254
 664:	90 83       	st	Z, r25

00000666 <USART1_RX_EXIT>:
 666:	ff 91       	pop	r31
 668:	ef 91       	pop	r30
 66a:	9f 91       	pop	r25
 66c:	0f bf       	out	0x3f, r16	; 63
 66e:	0f 91       	pop	r16
 670:	18 95       	reti

00000672 <__floatunsisf>:
 672:	e8 94       	clt
 674:	09 c0       	rjmp	.+18     	; 0x688 <__floatsisf+0x12>

00000676 <__floatsisf>:
 676:	97 fb       	bst	r25, 7
 678:	3e f4       	brtc	.+14     	; 0x688 <__floatsisf+0x12>
 67a:	90 95       	com	r25
 67c:	80 95       	com	r24
 67e:	70 95       	com	r23
 680:	61 95       	neg	r22
 682:	7f 4f       	sbci	r23, 0xFF	; 255
 684:	8f 4f       	sbci	r24, 0xFF	; 255
 686:	9f 4f       	sbci	r25, 0xFF	; 255
 688:	99 23       	and	r25, r25
 68a:	a9 f0       	breq	.+42     	; 0x6b6 <__floatsisf+0x40>
 68c:	f9 2f       	mov	r31, r25
 68e:	96 e9       	ldi	r25, 0x96	; 150
 690:	bb 27       	eor	r27, r27
 692:	93 95       	inc	r25
 694:	f6 95       	lsr	r31
 696:	87 95       	ror	r24
 698:	77 95       	ror	r23
 69a:	67 95       	ror	r22
 69c:	b7 95       	ror	r27
 69e:	f1 11       	cpse	r31, r1
 6a0:	f8 cf       	rjmp	.-16     	; 0x692 <__floatsisf+0x1c>
 6a2:	fa f4       	brpl	.+62     	; 0x6e2 <__floatsisf+0x6c>
 6a4:	bb 0f       	add	r27, r27
 6a6:	11 f4       	brne	.+4      	; 0x6ac <__floatsisf+0x36>
 6a8:	60 ff       	sbrs	r22, 0
 6aa:	1b c0       	rjmp	.+54     	; 0x6e2 <__floatsisf+0x6c>
 6ac:	6f 5f       	subi	r22, 0xFF	; 255
 6ae:	7f 4f       	sbci	r23, 0xFF	; 255
 6b0:	8f 4f       	sbci	r24, 0xFF	; 255
 6b2:	9f 4f       	sbci	r25, 0xFF	; 255
 6b4:	16 c0       	rjmp	.+44     	; 0x6e2 <__floatsisf+0x6c>
 6b6:	88 23       	and	r24, r24
 6b8:	11 f0       	breq	.+4      	; 0x6be <__floatsisf+0x48>
 6ba:	96 e9       	ldi	r25, 0x96	; 150
 6bc:	11 c0       	rjmp	.+34     	; 0x6e0 <__floatsisf+0x6a>
 6be:	77 23       	and	r23, r23
 6c0:	21 f0       	breq	.+8      	; 0x6ca <__floatsisf+0x54>
 6c2:	9e e8       	ldi	r25, 0x8E	; 142
 6c4:	87 2f       	mov	r24, r23
 6c6:	76 2f       	mov	r23, r22
 6c8:	05 c0       	rjmp	.+10     	; 0x6d4 <__floatsisf+0x5e>
 6ca:	66 23       	and	r22, r22
 6cc:	71 f0       	breq	.+28     	; 0x6ea <__floatsisf+0x74>
 6ce:	96 e8       	ldi	r25, 0x86	; 134
 6d0:	86 2f       	mov	r24, r22
 6d2:	70 e0       	ldi	r23, 0x00	; 0
 6d4:	60 e0       	ldi	r22, 0x00	; 0
 6d6:	2a f0       	brmi	.+10     	; 0x6e2 <__floatsisf+0x6c>
 6d8:	9a 95       	dec	r25
 6da:	66 0f       	add	r22, r22
 6dc:	77 1f       	adc	r23, r23
 6de:	88 1f       	adc	r24, r24
 6e0:	da f7       	brpl	.-10     	; 0x6d8 <__floatsisf+0x62>
 6e2:	88 0f       	add	r24, r24
 6e4:	96 95       	lsr	r25
 6e6:	87 95       	ror	r24
 6e8:	97 f9       	bld	r25, 7
 6ea:	08 95       	ret

000006ec <__mulsf3>:
 6ec:	0e 94 89 03 	call	0x712	; 0x712 <__mulsf3x>
 6f0:	0c 94 fa 03 	jmp	0x7f4	; 0x7f4 <__fp_round>
 6f4:	0e 94 ec 03 	call	0x7d8	; 0x7d8 <__fp_pscA>
 6f8:	38 f0       	brcs	.+14     	; 0x708 <__mulsf3+0x1c>
 6fa:	0e 94 f3 03 	call	0x7e6	; 0x7e6 <__fp_pscB>
 6fe:	20 f0       	brcs	.+8      	; 0x708 <__mulsf3+0x1c>
 700:	95 23       	and	r25, r21
 702:	11 f0       	breq	.+4      	; 0x708 <__mulsf3+0x1c>
 704:	0c 94 e3 03 	jmp	0x7c6	; 0x7c6 <__fp_inf>
 708:	0c 94 e9 03 	jmp	0x7d2	; 0x7d2 <__fp_nan>
 70c:	11 24       	eor	r1, r1
 70e:	0c 94 2e 04 	jmp	0x85c	; 0x85c <__fp_szero>

00000712 <__mulsf3x>:
 712:	0e 94 0b 04 	call	0x816	; 0x816 <__fp_split3>
 716:	70 f3       	brcs	.-36     	; 0x6f4 <__mulsf3+0x8>

00000718 <__mulsf3_pse>:
 718:	95 9f       	mul	r25, r21
 71a:	c1 f3       	breq	.-16     	; 0x70c <__mulsf3+0x20>
 71c:	95 0f       	add	r25, r21
 71e:	50 e0       	ldi	r21, 0x00	; 0
 720:	55 1f       	adc	r21, r21
 722:	62 9f       	mul	r22, r18
 724:	f0 01       	movw	r30, r0
 726:	72 9f       	mul	r23, r18
 728:	bb 27       	eor	r27, r27
 72a:	f0 0d       	add	r31, r0
 72c:	b1 1d       	adc	r27, r1
 72e:	63 9f       	mul	r22, r19
 730:	aa 27       	eor	r26, r26
 732:	f0 0d       	add	r31, r0
 734:	b1 1d       	adc	r27, r1
 736:	aa 1f       	adc	r26, r26
 738:	64 9f       	mul	r22, r20
 73a:	66 27       	eor	r22, r22
 73c:	b0 0d       	add	r27, r0
 73e:	a1 1d       	adc	r26, r1
 740:	66 1f       	adc	r22, r22
 742:	82 9f       	mul	r24, r18
 744:	22 27       	eor	r18, r18
 746:	b0 0d       	add	r27, r0
 748:	a1 1d       	adc	r26, r1
 74a:	62 1f       	adc	r22, r18
 74c:	73 9f       	mul	r23, r19
 74e:	b0 0d       	add	r27, r0
 750:	a1 1d       	adc	r26, r1
 752:	62 1f       	adc	r22, r18
 754:	83 9f       	mul	r24, r19
 756:	a0 0d       	add	r26, r0
 758:	61 1d       	adc	r22, r1
 75a:	22 1f       	adc	r18, r18
 75c:	74 9f       	mul	r23, r20
 75e:	33 27       	eor	r19, r19
 760:	a0 0d       	add	r26, r0
 762:	61 1d       	adc	r22, r1
 764:	23 1f       	adc	r18, r19
 766:	84 9f       	mul	r24, r20
 768:	60 0d       	add	r22, r0
 76a:	21 1d       	adc	r18, r1
 76c:	82 2f       	mov	r24, r18
 76e:	76 2f       	mov	r23, r22
 770:	6a 2f       	mov	r22, r26
 772:	11 24       	eor	r1, r1
 774:	9f 57       	subi	r25, 0x7F	; 127
 776:	50 40       	sbci	r21, 0x00	; 0
 778:	9a f0       	brmi	.+38     	; 0x7a0 <__mulsf3_pse+0x88>
 77a:	f1 f0       	breq	.+60     	; 0x7b8 <__mulsf3_pse+0xa0>
 77c:	88 23       	and	r24, r24
 77e:	4a f0       	brmi	.+18     	; 0x792 <__mulsf3_pse+0x7a>
 780:	ee 0f       	add	r30, r30
 782:	ff 1f       	adc	r31, r31
 784:	bb 1f       	adc	r27, r27
 786:	66 1f       	adc	r22, r22
 788:	77 1f       	adc	r23, r23
 78a:	88 1f       	adc	r24, r24
 78c:	91 50       	subi	r25, 0x01	; 1
 78e:	50 40       	sbci	r21, 0x00	; 0
 790:	a9 f7       	brne	.-22     	; 0x77c <__mulsf3_pse+0x64>
 792:	9e 3f       	cpi	r25, 0xFE	; 254
 794:	51 05       	cpc	r21, r1
 796:	80 f0       	brcs	.+32     	; 0x7b8 <__mulsf3_pse+0xa0>
 798:	0c 94 e3 03 	jmp	0x7c6	; 0x7c6 <__fp_inf>
 79c:	0c 94 2e 04 	jmp	0x85c	; 0x85c <__fp_szero>
 7a0:	5f 3f       	cpi	r21, 0xFF	; 255
 7a2:	e4 f3       	brlt	.-8      	; 0x79c <__mulsf3_pse+0x84>
 7a4:	98 3e       	cpi	r25, 0xE8	; 232
 7a6:	d4 f3       	brlt	.-12     	; 0x79c <__mulsf3_pse+0x84>
 7a8:	86 95       	lsr	r24
 7aa:	77 95       	ror	r23
 7ac:	67 95       	ror	r22
 7ae:	b7 95       	ror	r27
 7b0:	f7 95       	ror	r31
 7b2:	e7 95       	ror	r30
 7b4:	9f 5f       	subi	r25, 0xFF	; 255
 7b6:	c1 f7       	brne	.-16     	; 0x7a8 <__mulsf3_pse+0x90>
 7b8:	fe 2b       	or	r31, r30
 7ba:	88 0f       	add	r24, r24
 7bc:	91 1d       	adc	r25, r1
 7be:	96 95       	lsr	r25
 7c0:	87 95       	ror	r24
 7c2:	97 f9       	bld	r25, 7
 7c4:	08 95       	ret

000007c6 <__fp_inf>:
 7c6:	97 f9       	bld	r25, 7
 7c8:	9f 67       	ori	r25, 0x7F	; 127
 7ca:	80 e8       	ldi	r24, 0x80	; 128
 7cc:	70 e0       	ldi	r23, 0x00	; 0
 7ce:	60 e0       	ldi	r22, 0x00	; 0
 7d0:	08 95       	ret

000007d2 <__fp_nan>:
 7d2:	9f ef       	ldi	r25, 0xFF	; 255
 7d4:	80 ec       	ldi	r24, 0xC0	; 192
 7d6:	08 95       	ret

000007d8 <__fp_pscA>:
 7d8:	00 24       	eor	r0, r0
 7da:	0a 94       	dec	r0
 7dc:	16 16       	cp	r1, r22
 7de:	17 06       	cpc	r1, r23
 7e0:	18 06       	cpc	r1, r24
 7e2:	09 06       	cpc	r0, r25
 7e4:	08 95       	ret

000007e6 <__fp_pscB>:
 7e6:	00 24       	eor	r0, r0
 7e8:	0a 94       	dec	r0
 7ea:	12 16       	cp	r1, r18
 7ec:	13 06       	cpc	r1, r19
 7ee:	14 06       	cpc	r1, r20
 7f0:	05 06       	cpc	r0, r21
 7f2:	08 95       	ret

000007f4 <__fp_round>:
 7f4:	09 2e       	mov	r0, r25
 7f6:	03 94       	inc	r0
 7f8:	00 0c       	add	r0, r0
 7fa:	11 f4       	brne	.+4      	; 0x800 <__DATA_REGION_LENGTH__>
 7fc:	88 23       	and	r24, r24
 7fe:	52 f0       	brmi	.+20     	; 0x814 <__DATA_REGION_LENGTH__+0x14>
 800:	bb 0f       	add	r27, r27
 802:	40 f4       	brcc	.+16     	; 0x814 <__DATA_REGION_LENGTH__+0x14>
 804:	bf 2b       	or	r27, r31
 806:	11 f4       	brne	.+4      	; 0x80c <__DATA_REGION_LENGTH__+0xc>
 808:	60 ff       	sbrs	r22, 0
 80a:	04 c0       	rjmp	.+8      	; 0x814 <__DATA_REGION_LENGTH__+0x14>
 80c:	6f 5f       	subi	r22, 0xFF	; 255
 80e:	7f 4f       	sbci	r23, 0xFF	; 255
 810:	8f 4f       	sbci	r24, 0xFF	; 255
 812:	9f 4f       	sbci	r25, 0xFF	; 255
 814:	08 95       	ret

00000816 <__fp_split3>:
 816:	57 fd       	sbrc	r21, 7
 818:	90 58       	subi	r25, 0x80	; 128
 81a:	44 0f       	add	r20, r20
 81c:	55 1f       	adc	r21, r21
 81e:	59 f0       	breq	.+22     	; 0x836 <__fp_splitA+0x10>
 820:	5f 3f       	cpi	r21, 0xFF	; 255
 822:	71 f0       	breq	.+28     	; 0x840 <__fp_splitA+0x1a>
 824:	47 95       	ror	r20

00000826 <__fp_splitA>:
 826:	88 0f       	add	r24, r24
 828:	97 fb       	bst	r25, 7
 82a:	99 1f       	adc	r25, r25
 82c:	61 f0       	breq	.+24     	; 0x846 <__fp_splitA+0x20>
 82e:	9f 3f       	cpi	r25, 0xFF	; 255
 830:	79 f0       	breq	.+30     	; 0x850 <__fp_splitA+0x2a>
 832:	87 95       	ror	r24
 834:	08 95       	ret
 836:	12 16       	cp	r1, r18
 838:	13 06       	cpc	r1, r19
 83a:	14 06       	cpc	r1, r20
 83c:	55 1f       	adc	r21, r21
 83e:	f2 cf       	rjmp	.-28     	; 0x824 <__fp_split3+0xe>
 840:	46 95       	lsr	r20
 842:	f1 df       	rcall	.-30     	; 0x826 <__fp_splitA>
 844:	08 c0       	rjmp	.+16     	; 0x856 <__fp_splitA+0x30>
 846:	16 16       	cp	r1, r22
 848:	17 06       	cpc	r1, r23
 84a:	18 06       	cpc	r1, r24
 84c:	99 1f       	adc	r25, r25
 84e:	f1 cf       	rjmp	.-30     	; 0x832 <__fp_splitA+0xc>
 850:	86 95       	lsr	r24
 852:	71 05       	cpc	r23, r1
 854:	61 05       	cpc	r22, r1
 856:	08 94       	sec
 858:	08 95       	ret

0000085a <__fp_zero>:
 85a:	e8 94       	clt

0000085c <__fp_szero>:
 85c:	bb 27       	eor	r27, r27
 85e:	66 27       	eor	r22, r22
 860:	77 27       	eor	r23, r23
 862:	cb 01       	movw	r24, r22
 864:	97 f9       	bld	r25, 7
 866:	08 95       	ret

00000868 <dtostrf>:
 868:	ef 92       	push	r14
 86a:	0f 93       	push	r16
 86c:	1f 93       	push	r17
 86e:	cf 93       	push	r28
 870:	df 93       	push	r29
 872:	e8 01       	movw	r28, r16
 874:	47 fd       	sbrc	r20, 7
 876:	02 c0       	rjmp	.+4      	; 0x87c <dtostrf+0x14>
 878:	34 e0       	ldi	r19, 0x04	; 4
 87a:	01 c0       	rjmp	.+2      	; 0x87e <dtostrf+0x16>
 87c:	34 e1       	ldi	r19, 0x14	; 20
 87e:	04 2e       	mov	r0, r20
 880:	00 0c       	add	r0, r0
 882:	55 0b       	sbc	r21, r21
 884:	57 ff       	sbrs	r21, 7
 886:	03 c0       	rjmp	.+6      	; 0x88e <dtostrf+0x26>
 888:	51 95       	neg	r21
 88a:	41 95       	neg	r20
 88c:	51 09       	sbc	r21, r1
 88e:	e3 2e       	mov	r14, r19
 890:	02 2f       	mov	r16, r18
 892:	24 2f       	mov	r18, r20
 894:	ae 01       	movw	r20, r28
 896:	0e 94 84 04 	call	0x908	; 0x908 <dtoa_prf>
 89a:	ce 01       	movw	r24, r28
 89c:	df 91       	pop	r29
 89e:	cf 91       	pop	r28
 8a0:	1f 91       	pop	r17
 8a2:	0f 91       	pop	r16
 8a4:	ef 90       	pop	r14
 8a6:	08 95       	ret

000008a8 <puts>:
 8a8:	0f 93       	push	r16
 8aa:	1f 93       	push	r17
 8ac:	cf 93       	push	r28
 8ae:	df 93       	push	r29
 8b0:	e0 91 c0 01 	lds	r30, 0x01C0	; 0x8001c0 <__iob+0x2>
 8b4:	f0 91 c1 01 	lds	r31, 0x01C1	; 0x8001c1 <__iob+0x3>
 8b8:	23 81       	ldd	r18, Z+3	; 0x03
 8ba:	21 ff       	sbrs	r18, 1
 8bc:	1b c0       	rjmp	.+54     	; 0x8f4 <puts+0x4c>
 8be:	8c 01       	movw	r16, r24
 8c0:	d0 e0       	ldi	r29, 0x00	; 0
 8c2:	c0 e0       	ldi	r28, 0x00	; 0
 8c4:	f8 01       	movw	r30, r16
 8c6:	81 91       	ld	r24, Z+
 8c8:	8f 01       	movw	r16, r30
 8ca:	60 91 c0 01 	lds	r22, 0x01C0	; 0x8001c0 <__iob+0x2>
 8ce:	70 91 c1 01 	lds	r23, 0x01C1	; 0x8001c1 <__iob+0x3>
 8d2:	db 01       	movw	r26, r22
 8d4:	18 96       	adiw	r26, 0x08	; 8
 8d6:	ed 91       	ld	r30, X+
 8d8:	fc 91       	ld	r31, X
 8da:	19 97       	sbiw	r26, 0x09	; 9
 8dc:	88 23       	and	r24, r24
 8de:	31 f0       	breq	.+12     	; 0x8ec <puts+0x44>
 8e0:	09 95       	icall
 8e2:	89 2b       	or	r24, r25
 8e4:	79 f3       	breq	.-34     	; 0x8c4 <puts+0x1c>
 8e6:	df ef       	ldi	r29, 0xFF	; 255
 8e8:	cf ef       	ldi	r28, 0xFF	; 255
 8ea:	ec cf       	rjmp	.-40     	; 0x8c4 <puts+0x1c>
 8ec:	8a e0       	ldi	r24, 0x0A	; 10
 8ee:	09 95       	icall
 8f0:	89 2b       	or	r24, r25
 8f2:	19 f0       	breq	.+6      	; 0x8fa <puts+0x52>
 8f4:	8f ef       	ldi	r24, 0xFF	; 255
 8f6:	9f ef       	ldi	r25, 0xFF	; 255
 8f8:	02 c0       	rjmp	.+4      	; 0x8fe <puts+0x56>
 8fa:	8d 2f       	mov	r24, r29
 8fc:	9c 2f       	mov	r25, r28
 8fe:	df 91       	pop	r29
 900:	cf 91       	pop	r28
 902:	1f 91       	pop	r17
 904:	0f 91       	pop	r16
 906:	08 95       	ret

00000908 <dtoa_prf>:
 908:	a9 e0       	ldi	r26, 0x09	; 9
 90a:	b0 e0       	ldi	r27, 0x00	; 0
 90c:	ea e8       	ldi	r30, 0x8A	; 138
 90e:	f4 e0       	ldi	r31, 0x04	; 4
 910:	0c 94 bc 06 	jmp	0xd78	; 0xd78 <__prologue_saves__+0xc>
 914:	6a 01       	movw	r12, r20
 916:	12 2f       	mov	r17, r18
 918:	b0 2e       	mov	r11, r16
 91a:	2b e3       	ldi	r18, 0x3B	; 59
 91c:	20 17       	cp	r18, r16
 91e:	20 f0       	brcs	.+8      	; 0x928 <dtoa_prf+0x20>
 920:	ff 24       	eor	r15, r15
 922:	f3 94       	inc	r15
 924:	f0 0e       	add	r15, r16
 926:	02 c0       	rjmp	.+4      	; 0x92c <dtoa_prf+0x24>
 928:	2c e3       	ldi	r18, 0x3C	; 60
 92a:	f2 2e       	mov	r15, r18
 92c:	0f 2d       	mov	r16, r15
 92e:	27 e0       	ldi	r18, 0x07	; 7
 930:	ae 01       	movw	r20, r28
 932:	4f 5f       	subi	r20, 0xFF	; 255
 934:	5f 4f       	sbci	r21, 0xFF	; 255
 936:	0e 94 de 05 	call	0xbbc	; 0xbbc <__ftoa_engine>
 93a:	bc 01       	movw	r22, r24
 93c:	49 81       	ldd	r20, Y+1	; 0x01
 93e:	84 2f       	mov	r24, r20
 940:	89 70       	andi	r24, 0x09	; 9
 942:	81 30       	cpi	r24, 0x01	; 1
 944:	31 f0       	breq	.+12     	; 0x952 <dtoa_prf+0x4a>
 946:	e1 fc       	sbrc	r14, 1
 948:	06 c0       	rjmp	.+12     	; 0x956 <dtoa_prf+0x4e>
 94a:	e0 fe       	sbrs	r14, 0
 94c:	06 c0       	rjmp	.+12     	; 0x95a <dtoa_prf+0x52>
 94e:	90 e2       	ldi	r25, 0x20	; 32
 950:	05 c0       	rjmp	.+10     	; 0x95c <dtoa_prf+0x54>
 952:	9d e2       	ldi	r25, 0x2D	; 45
 954:	03 c0       	rjmp	.+6      	; 0x95c <dtoa_prf+0x54>
 956:	9b e2       	ldi	r25, 0x2B	; 43
 958:	01 c0       	rjmp	.+2      	; 0x95c <dtoa_prf+0x54>
 95a:	90 e0       	ldi	r25, 0x00	; 0
 95c:	5e 2d       	mov	r21, r14
 95e:	50 71       	andi	r21, 0x10	; 16
 960:	43 ff       	sbrs	r20, 3
 962:	3c c0       	rjmp	.+120    	; 0x9dc <dtoa_prf+0xd4>
 964:	91 11       	cpse	r25, r1
 966:	02 c0       	rjmp	.+4      	; 0x96c <dtoa_prf+0x64>
 968:	83 e0       	ldi	r24, 0x03	; 3
 96a:	01 c0       	rjmp	.+2      	; 0x96e <dtoa_prf+0x66>
 96c:	84 e0       	ldi	r24, 0x04	; 4
 96e:	81 17       	cp	r24, r17
 970:	18 f4       	brcc	.+6      	; 0x978 <dtoa_prf+0x70>
 972:	21 2f       	mov	r18, r17
 974:	28 1b       	sub	r18, r24
 976:	01 c0       	rjmp	.+2      	; 0x97a <dtoa_prf+0x72>
 978:	20 e0       	ldi	r18, 0x00	; 0
 97a:	51 11       	cpse	r21, r1
 97c:	0b c0       	rjmp	.+22     	; 0x994 <dtoa_prf+0x8c>
 97e:	f6 01       	movw	r30, r12
 980:	82 2f       	mov	r24, r18
 982:	30 e2       	ldi	r19, 0x20	; 32
 984:	88 23       	and	r24, r24
 986:	19 f0       	breq	.+6      	; 0x98e <dtoa_prf+0x86>
 988:	31 93       	st	Z+, r19
 98a:	81 50       	subi	r24, 0x01	; 1
 98c:	fb cf       	rjmp	.-10     	; 0x984 <dtoa_prf+0x7c>
 98e:	c2 0e       	add	r12, r18
 990:	d1 1c       	adc	r13, r1
 992:	20 e0       	ldi	r18, 0x00	; 0
 994:	99 23       	and	r25, r25
 996:	29 f0       	breq	.+10     	; 0x9a2 <dtoa_prf+0x9a>
 998:	d6 01       	movw	r26, r12
 99a:	9c 93       	st	X, r25
 99c:	f6 01       	movw	r30, r12
 99e:	31 96       	adiw	r30, 0x01	; 1
 9a0:	6f 01       	movw	r12, r30
 9a2:	c6 01       	movw	r24, r12
 9a4:	03 96       	adiw	r24, 0x03	; 3
 9a6:	e2 fe       	sbrs	r14, 2
 9a8:	0a c0       	rjmp	.+20     	; 0x9be <dtoa_prf+0xb6>
 9aa:	3e e4       	ldi	r19, 0x4E	; 78
 9ac:	d6 01       	movw	r26, r12
 9ae:	3c 93       	st	X, r19
 9b0:	41 e4       	ldi	r20, 0x41	; 65
 9b2:	11 96       	adiw	r26, 0x01	; 1
 9b4:	4c 93       	st	X, r20
 9b6:	11 97       	sbiw	r26, 0x01	; 1
 9b8:	12 96       	adiw	r26, 0x02	; 2
 9ba:	3c 93       	st	X, r19
 9bc:	06 c0       	rjmp	.+12     	; 0x9ca <dtoa_prf+0xc2>
 9be:	3e e6       	ldi	r19, 0x6E	; 110
 9c0:	f6 01       	movw	r30, r12
 9c2:	30 83       	st	Z, r19
 9c4:	41 e6       	ldi	r20, 0x61	; 97
 9c6:	41 83       	std	Z+1, r20	; 0x01
 9c8:	32 83       	std	Z+2, r19	; 0x02
 9ca:	fc 01       	movw	r30, r24
 9cc:	32 2f       	mov	r19, r18
 9ce:	40 e2       	ldi	r20, 0x20	; 32
 9d0:	33 23       	and	r19, r19
 9d2:	09 f4       	brne	.+2      	; 0x9d6 <dtoa_prf+0xce>
 9d4:	42 c0       	rjmp	.+132    	; 0xa5a <dtoa_prf+0x152>
 9d6:	41 93       	st	Z+, r20
 9d8:	31 50       	subi	r19, 0x01	; 1
 9da:	fa cf       	rjmp	.-12     	; 0x9d0 <dtoa_prf+0xc8>
 9dc:	42 ff       	sbrs	r20, 2
 9de:	44 c0       	rjmp	.+136    	; 0xa68 <dtoa_prf+0x160>
 9e0:	91 11       	cpse	r25, r1
 9e2:	02 c0       	rjmp	.+4      	; 0x9e8 <dtoa_prf+0xe0>
 9e4:	83 e0       	ldi	r24, 0x03	; 3
 9e6:	01 c0       	rjmp	.+2      	; 0x9ea <dtoa_prf+0xe2>
 9e8:	84 e0       	ldi	r24, 0x04	; 4
 9ea:	81 17       	cp	r24, r17
 9ec:	18 f4       	brcc	.+6      	; 0x9f4 <dtoa_prf+0xec>
 9ee:	21 2f       	mov	r18, r17
 9f0:	28 1b       	sub	r18, r24
 9f2:	01 c0       	rjmp	.+2      	; 0x9f6 <dtoa_prf+0xee>
 9f4:	20 e0       	ldi	r18, 0x00	; 0
 9f6:	51 11       	cpse	r21, r1
 9f8:	0b c0       	rjmp	.+22     	; 0xa10 <dtoa_prf+0x108>
 9fa:	f6 01       	movw	r30, r12
 9fc:	82 2f       	mov	r24, r18
 9fe:	30 e2       	ldi	r19, 0x20	; 32
 a00:	88 23       	and	r24, r24
 a02:	19 f0       	breq	.+6      	; 0xa0a <dtoa_prf+0x102>
 a04:	31 93       	st	Z+, r19
 a06:	81 50       	subi	r24, 0x01	; 1
 a08:	fb cf       	rjmp	.-10     	; 0xa00 <dtoa_prf+0xf8>
 a0a:	c2 0e       	add	r12, r18
 a0c:	d1 1c       	adc	r13, r1
 a0e:	20 e0       	ldi	r18, 0x00	; 0
 a10:	99 23       	and	r25, r25
 a12:	29 f0       	breq	.+10     	; 0xa1e <dtoa_prf+0x116>
 a14:	d6 01       	movw	r26, r12
 a16:	9c 93       	st	X, r25
 a18:	f6 01       	movw	r30, r12
 a1a:	31 96       	adiw	r30, 0x01	; 1
 a1c:	6f 01       	movw	r12, r30
 a1e:	c6 01       	movw	r24, r12
 a20:	03 96       	adiw	r24, 0x03	; 3
 a22:	e2 fe       	sbrs	r14, 2
 a24:	0b c0       	rjmp	.+22     	; 0xa3c <dtoa_prf+0x134>
 a26:	39 e4       	ldi	r19, 0x49	; 73
 a28:	d6 01       	movw	r26, r12
 a2a:	3c 93       	st	X, r19
 a2c:	3e e4       	ldi	r19, 0x4E	; 78
 a2e:	11 96       	adiw	r26, 0x01	; 1
 a30:	3c 93       	st	X, r19
 a32:	11 97       	sbiw	r26, 0x01	; 1
 a34:	36 e4       	ldi	r19, 0x46	; 70
 a36:	12 96       	adiw	r26, 0x02	; 2
 a38:	3c 93       	st	X, r19
 a3a:	07 c0       	rjmp	.+14     	; 0xa4a <dtoa_prf+0x142>
 a3c:	39 e6       	ldi	r19, 0x69	; 105
 a3e:	f6 01       	movw	r30, r12
 a40:	30 83       	st	Z, r19
 a42:	3e e6       	ldi	r19, 0x6E	; 110
 a44:	31 83       	std	Z+1, r19	; 0x01
 a46:	36 e6       	ldi	r19, 0x66	; 102
 a48:	32 83       	std	Z+2, r19	; 0x02
 a4a:	fc 01       	movw	r30, r24
 a4c:	32 2f       	mov	r19, r18
 a4e:	40 e2       	ldi	r20, 0x20	; 32
 a50:	33 23       	and	r19, r19
 a52:	19 f0       	breq	.+6      	; 0xa5a <dtoa_prf+0x152>
 a54:	41 93       	st	Z+, r20
 a56:	31 50       	subi	r19, 0x01	; 1
 a58:	fb cf       	rjmp	.-10     	; 0xa50 <dtoa_prf+0x148>
 a5a:	fc 01       	movw	r30, r24
 a5c:	e2 0f       	add	r30, r18
 a5e:	f1 1d       	adc	r31, r1
 a60:	10 82       	st	Z, r1
 a62:	8e ef       	ldi	r24, 0xFE	; 254
 a64:	9f ef       	ldi	r25, 0xFF	; 255
 a66:	a6 c0       	rjmp	.+332    	; 0xbb4 <dtoa_prf+0x2ac>
 a68:	21 e0       	ldi	r18, 0x01	; 1
 a6a:	30 e0       	ldi	r19, 0x00	; 0
 a6c:	91 11       	cpse	r25, r1
 a6e:	02 c0       	rjmp	.+4      	; 0xa74 <dtoa_prf+0x16c>
 a70:	20 e0       	ldi	r18, 0x00	; 0
 a72:	30 e0       	ldi	r19, 0x00	; 0
 a74:	16 16       	cp	r1, r22
 a76:	17 06       	cpc	r1, r23
 a78:	1c f4       	brge	.+6      	; 0xa80 <dtoa_prf+0x178>
 a7a:	fb 01       	movw	r30, r22
 a7c:	31 96       	adiw	r30, 0x01	; 1
 a7e:	02 c0       	rjmp	.+4      	; 0xa84 <dtoa_prf+0x17c>
 a80:	e1 e0       	ldi	r30, 0x01	; 1
 a82:	f0 e0       	ldi	r31, 0x00	; 0
 a84:	2e 0f       	add	r18, r30
 a86:	3f 1f       	adc	r19, r31
 a88:	bb 20       	and	r11, r11
 a8a:	21 f0       	breq	.+8      	; 0xa94 <dtoa_prf+0x18c>
 a8c:	eb 2d       	mov	r30, r11
 a8e:	f0 e0       	ldi	r31, 0x00	; 0
 a90:	31 96       	adiw	r30, 0x01	; 1
 a92:	02 c0       	rjmp	.+4      	; 0xa98 <dtoa_prf+0x190>
 a94:	e0 e0       	ldi	r30, 0x00	; 0
 a96:	f0 e0       	ldi	r31, 0x00	; 0
 a98:	2e 0f       	add	r18, r30
 a9a:	3f 1f       	adc	r19, r31
 a9c:	e1 2f       	mov	r30, r17
 a9e:	f0 e0       	ldi	r31, 0x00	; 0
 aa0:	2e 17       	cp	r18, r30
 aa2:	3f 07       	cpc	r19, r31
 aa4:	1c f4       	brge	.+6      	; 0xaac <dtoa_prf+0x1a4>
 aa6:	12 1b       	sub	r17, r18
 aa8:	21 2f       	mov	r18, r17
 aaa:	01 c0       	rjmp	.+2      	; 0xaae <dtoa_prf+0x1a6>
 aac:	20 e0       	ldi	r18, 0x00	; 0
 aae:	8e 2d       	mov	r24, r14
 ab0:	88 71       	andi	r24, 0x18	; 24
 ab2:	59 f4       	brne	.+22     	; 0xaca <dtoa_prf+0x1c2>
 ab4:	f6 01       	movw	r30, r12
 ab6:	82 2f       	mov	r24, r18
 ab8:	30 e2       	ldi	r19, 0x20	; 32
 aba:	88 23       	and	r24, r24
 abc:	19 f0       	breq	.+6      	; 0xac4 <dtoa_prf+0x1bc>
 abe:	31 93       	st	Z+, r19
 ac0:	81 50       	subi	r24, 0x01	; 1
 ac2:	fb cf       	rjmp	.-10     	; 0xaba <dtoa_prf+0x1b2>
 ac4:	c2 0e       	add	r12, r18
 ac6:	d1 1c       	adc	r13, r1
 ac8:	20 e0       	ldi	r18, 0x00	; 0
 aca:	99 23       	and	r25, r25
 acc:	29 f0       	breq	.+10     	; 0xad8 <dtoa_prf+0x1d0>
 ace:	d6 01       	movw	r26, r12
 ad0:	9c 93       	st	X, r25
 ad2:	f6 01       	movw	r30, r12
 ad4:	31 96       	adiw	r30, 0x01	; 1
 ad6:	6f 01       	movw	r12, r30
 ad8:	51 11       	cpse	r21, r1
 ada:	0b c0       	rjmp	.+22     	; 0xaf2 <dtoa_prf+0x1ea>
 adc:	f6 01       	movw	r30, r12
 ade:	82 2f       	mov	r24, r18
 ae0:	90 e3       	ldi	r25, 0x30	; 48
 ae2:	88 23       	and	r24, r24
 ae4:	19 f0       	breq	.+6      	; 0xaec <dtoa_prf+0x1e4>
 ae6:	91 93       	st	Z+, r25
 ae8:	81 50       	subi	r24, 0x01	; 1
 aea:	fb cf       	rjmp	.-10     	; 0xae2 <dtoa_prf+0x1da>
 aec:	c2 0e       	add	r12, r18
 aee:	d1 1c       	adc	r13, r1
 af0:	20 e0       	ldi	r18, 0x00	; 0
 af2:	0f 2d       	mov	r16, r15
 af4:	06 0f       	add	r16, r22
 af6:	9a 81       	ldd	r25, Y+2	; 0x02
 af8:	34 2f       	mov	r19, r20
 afa:	30 71       	andi	r19, 0x10	; 16
 afc:	44 ff       	sbrs	r20, 4
 afe:	03 c0       	rjmp	.+6      	; 0xb06 <dtoa_prf+0x1fe>
 b00:	91 33       	cpi	r25, 0x31	; 49
 b02:	09 f4       	brne	.+2      	; 0xb06 <dtoa_prf+0x1fe>
 b04:	01 50       	subi	r16, 0x01	; 1
 b06:	10 16       	cp	r1, r16
 b08:	24 f4       	brge	.+8      	; 0xb12 <dtoa_prf+0x20a>
 b0a:	09 30       	cpi	r16, 0x09	; 9
 b0c:	18 f0       	brcs	.+6      	; 0xb14 <dtoa_prf+0x20c>
 b0e:	08 e0       	ldi	r16, 0x08	; 8
 b10:	01 c0       	rjmp	.+2      	; 0xb14 <dtoa_prf+0x20c>
 b12:	01 e0       	ldi	r16, 0x01	; 1
 b14:	ab 01       	movw	r20, r22
 b16:	77 ff       	sbrs	r23, 7
 b18:	02 c0       	rjmp	.+4      	; 0xb1e <dtoa_prf+0x216>
 b1a:	40 e0       	ldi	r20, 0x00	; 0
 b1c:	50 e0       	ldi	r21, 0x00	; 0
 b1e:	fb 01       	movw	r30, r22
 b20:	e4 1b       	sub	r30, r20
 b22:	f5 0b       	sbc	r31, r21
 b24:	a1 e0       	ldi	r26, 0x01	; 1
 b26:	b0 e0       	ldi	r27, 0x00	; 0
 b28:	ac 0f       	add	r26, r28
 b2a:	bd 1f       	adc	r27, r29
 b2c:	ea 0f       	add	r30, r26
 b2e:	fb 1f       	adc	r31, r27
 b30:	8e e2       	ldi	r24, 0x2E	; 46
 b32:	a8 2e       	mov	r10, r24
 b34:	4b 01       	movw	r8, r22
 b36:	80 1a       	sub	r8, r16
 b38:	91 08       	sbc	r9, r1
 b3a:	0b 2d       	mov	r16, r11
 b3c:	10 e0       	ldi	r17, 0x00	; 0
 b3e:	11 95       	neg	r17
 b40:	01 95       	neg	r16
 b42:	11 09       	sbc	r17, r1
 b44:	4f 3f       	cpi	r20, 0xFF	; 255
 b46:	bf ef       	ldi	r27, 0xFF	; 255
 b48:	5b 07       	cpc	r21, r27
 b4a:	21 f4       	brne	.+8      	; 0xb54 <dtoa_prf+0x24c>
 b4c:	d6 01       	movw	r26, r12
 b4e:	ac 92       	st	X, r10
 b50:	11 96       	adiw	r26, 0x01	; 1
 b52:	6d 01       	movw	r12, r26
 b54:	64 17       	cp	r22, r20
 b56:	75 07       	cpc	r23, r21
 b58:	2c f0       	brlt	.+10     	; 0xb64 <dtoa_prf+0x25c>
 b5a:	84 16       	cp	r8, r20
 b5c:	95 06       	cpc	r9, r21
 b5e:	14 f4       	brge	.+4      	; 0xb64 <dtoa_prf+0x25c>
 b60:	81 81       	ldd	r24, Z+1	; 0x01
 b62:	01 c0       	rjmp	.+2      	; 0xb66 <dtoa_prf+0x25e>
 b64:	80 e3       	ldi	r24, 0x30	; 48
 b66:	41 50       	subi	r20, 0x01	; 1
 b68:	51 09       	sbc	r21, r1
 b6a:	31 96       	adiw	r30, 0x01	; 1
 b6c:	d6 01       	movw	r26, r12
 b6e:	11 96       	adiw	r26, 0x01	; 1
 b70:	7d 01       	movw	r14, r26
 b72:	40 17       	cp	r20, r16
 b74:	51 07       	cpc	r21, r17
 b76:	24 f0       	brlt	.+8      	; 0xb80 <dtoa_prf+0x278>
 b78:	d6 01       	movw	r26, r12
 b7a:	8c 93       	st	X, r24
 b7c:	67 01       	movw	r12, r14
 b7e:	e2 cf       	rjmp	.-60     	; 0xb44 <dtoa_prf+0x23c>
 b80:	64 17       	cp	r22, r20
 b82:	75 07       	cpc	r23, r21
 b84:	39 f4       	brne	.+14     	; 0xb94 <dtoa_prf+0x28c>
 b86:	96 33       	cpi	r25, 0x36	; 54
 b88:	20 f4       	brcc	.+8      	; 0xb92 <dtoa_prf+0x28a>
 b8a:	95 33       	cpi	r25, 0x35	; 53
 b8c:	19 f4       	brne	.+6      	; 0xb94 <dtoa_prf+0x28c>
 b8e:	31 11       	cpse	r19, r1
 b90:	01 c0       	rjmp	.+2      	; 0xb94 <dtoa_prf+0x28c>
 b92:	81 e3       	ldi	r24, 0x31	; 49
 b94:	f6 01       	movw	r30, r12
 b96:	80 83       	st	Z, r24
 b98:	f7 01       	movw	r30, r14
 b9a:	82 2f       	mov	r24, r18
 b9c:	90 e2       	ldi	r25, 0x20	; 32
 b9e:	88 23       	and	r24, r24
 ba0:	19 f0       	breq	.+6      	; 0xba8 <dtoa_prf+0x2a0>
 ba2:	91 93       	st	Z+, r25
 ba4:	81 50       	subi	r24, 0x01	; 1
 ba6:	fb cf       	rjmp	.-10     	; 0xb9e <dtoa_prf+0x296>
 ba8:	f7 01       	movw	r30, r14
 baa:	e2 0f       	add	r30, r18
 bac:	f1 1d       	adc	r31, r1
 bae:	10 82       	st	Z, r1
 bb0:	80 e0       	ldi	r24, 0x00	; 0
 bb2:	90 e0       	ldi	r25, 0x00	; 0
 bb4:	29 96       	adiw	r28, 0x09	; 9
 bb6:	ec e0       	ldi	r30, 0x0C	; 12
 bb8:	0c 94 d8 06 	jmp	0xdb0	; 0xdb0 <__epilogue_restores__+0xc>

00000bbc <__ftoa_engine>:
 bbc:	28 30       	cpi	r18, 0x08	; 8
 bbe:	08 f0       	brcs	.+2      	; 0xbc2 <__ftoa_engine+0x6>
 bc0:	27 e0       	ldi	r18, 0x07	; 7
 bc2:	33 27       	eor	r19, r19
 bc4:	da 01       	movw	r26, r20
 bc6:	99 0f       	add	r25, r25
 bc8:	31 1d       	adc	r19, r1
 bca:	87 fd       	sbrc	r24, 7
 bcc:	91 60       	ori	r25, 0x01	; 1
 bce:	00 96       	adiw	r24, 0x00	; 0
 bd0:	61 05       	cpc	r22, r1
 bd2:	71 05       	cpc	r23, r1
 bd4:	39 f4       	brne	.+14     	; 0xbe4 <__ftoa_engine+0x28>
 bd6:	32 60       	ori	r19, 0x02	; 2
 bd8:	2e 5f       	subi	r18, 0xFE	; 254
 bda:	3d 93       	st	X+, r19
 bdc:	30 e3       	ldi	r19, 0x30	; 48
 bde:	2a 95       	dec	r18
 be0:	e1 f7       	brne	.-8      	; 0xbda <__ftoa_engine+0x1e>
 be2:	08 95       	ret
 be4:	9f 3f       	cpi	r25, 0xFF	; 255
 be6:	30 f0       	brcs	.+12     	; 0xbf4 <__ftoa_engine+0x38>
 be8:	80 38       	cpi	r24, 0x80	; 128
 bea:	71 05       	cpc	r23, r1
 bec:	61 05       	cpc	r22, r1
 bee:	09 f0       	breq	.+2      	; 0xbf2 <__ftoa_engine+0x36>
 bf0:	3c 5f       	subi	r19, 0xFC	; 252
 bf2:	3c 5f       	subi	r19, 0xFC	; 252
 bf4:	3d 93       	st	X+, r19
 bf6:	91 30       	cpi	r25, 0x01	; 1
 bf8:	08 f0       	brcs	.+2      	; 0xbfc <__ftoa_engine+0x40>
 bfa:	80 68       	ori	r24, 0x80	; 128
 bfc:	91 1d       	adc	r25, r1
 bfe:	df 93       	push	r29
 c00:	cf 93       	push	r28
 c02:	1f 93       	push	r17
 c04:	0f 93       	push	r16
 c06:	ff 92       	push	r15
 c08:	ef 92       	push	r14
 c0a:	19 2f       	mov	r17, r25
 c0c:	98 7f       	andi	r25, 0xF8	; 248
 c0e:	96 95       	lsr	r25
 c10:	e9 2f       	mov	r30, r25
 c12:	96 95       	lsr	r25
 c14:	96 95       	lsr	r25
 c16:	e9 0f       	add	r30, r25
 c18:	ff 27       	eor	r31, r31
 c1a:	e2 5f       	subi	r30, 0xF2	; 242
 c1c:	fe 4f       	sbci	r31, 0xFE	; 254
 c1e:	99 27       	eor	r25, r25
 c20:	33 27       	eor	r19, r19
 c22:	ee 24       	eor	r14, r14
 c24:	ff 24       	eor	r15, r15
 c26:	a7 01       	movw	r20, r14
 c28:	e7 01       	movw	r28, r14
 c2a:	05 90       	lpm	r0, Z+
 c2c:	08 94       	sec
 c2e:	07 94       	ror	r0
 c30:	28 f4       	brcc	.+10     	; 0xc3c <__ftoa_engine+0x80>
 c32:	36 0f       	add	r19, r22
 c34:	e7 1e       	adc	r14, r23
 c36:	f8 1e       	adc	r15, r24
 c38:	49 1f       	adc	r20, r25
 c3a:	51 1d       	adc	r21, r1
 c3c:	66 0f       	add	r22, r22
 c3e:	77 1f       	adc	r23, r23
 c40:	88 1f       	adc	r24, r24
 c42:	99 1f       	adc	r25, r25
 c44:	06 94       	lsr	r0
 c46:	a1 f7       	brne	.-24     	; 0xc30 <__ftoa_engine+0x74>
 c48:	05 90       	lpm	r0, Z+
 c4a:	07 94       	ror	r0
 c4c:	28 f4       	brcc	.+10     	; 0xc58 <__ftoa_engine+0x9c>
 c4e:	e7 0e       	add	r14, r23
 c50:	f8 1e       	adc	r15, r24
 c52:	49 1f       	adc	r20, r25
 c54:	56 1f       	adc	r21, r22
 c56:	c1 1d       	adc	r28, r1
 c58:	77 0f       	add	r23, r23
 c5a:	88 1f       	adc	r24, r24
 c5c:	99 1f       	adc	r25, r25
 c5e:	66 1f       	adc	r22, r22
 c60:	06 94       	lsr	r0
 c62:	a1 f7       	brne	.-24     	; 0xc4c <__ftoa_engine+0x90>
 c64:	05 90       	lpm	r0, Z+
 c66:	07 94       	ror	r0
 c68:	28 f4       	brcc	.+10     	; 0xc74 <__ftoa_engine+0xb8>
 c6a:	f8 0e       	add	r15, r24
 c6c:	49 1f       	adc	r20, r25
 c6e:	56 1f       	adc	r21, r22
 c70:	c7 1f       	adc	r28, r23
 c72:	d1 1d       	adc	r29, r1
 c74:	88 0f       	add	r24, r24
 c76:	99 1f       	adc	r25, r25
 c78:	66 1f       	adc	r22, r22
 c7a:	77 1f       	adc	r23, r23
 c7c:	06 94       	lsr	r0
 c7e:	a1 f7       	brne	.-24     	; 0xc68 <__ftoa_engine+0xac>
 c80:	05 90       	lpm	r0, Z+
 c82:	07 94       	ror	r0
 c84:	20 f4       	brcc	.+8      	; 0xc8e <__ftoa_engine+0xd2>
 c86:	49 0f       	add	r20, r25
 c88:	56 1f       	adc	r21, r22
 c8a:	c7 1f       	adc	r28, r23
 c8c:	d8 1f       	adc	r29, r24
 c8e:	99 0f       	add	r25, r25
 c90:	66 1f       	adc	r22, r22
 c92:	77 1f       	adc	r23, r23
 c94:	88 1f       	adc	r24, r24
 c96:	06 94       	lsr	r0
 c98:	a9 f7       	brne	.-22     	; 0xc84 <__ftoa_engine+0xc8>
 c9a:	84 91       	lpm	r24, Z
 c9c:	10 95       	com	r17
 c9e:	17 70       	andi	r17, 0x07	; 7
 ca0:	41 f0       	breq	.+16     	; 0xcb2 <__ftoa_engine+0xf6>
 ca2:	d6 95       	lsr	r29
 ca4:	c7 95       	ror	r28
 ca6:	57 95       	ror	r21
 ca8:	47 95       	ror	r20
 caa:	f7 94       	ror	r15
 cac:	e7 94       	ror	r14
 cae:	1a 95       	dec	r17
 cb0:	c1 f7       	brne	.-16     	; 0xca2 <__ftoa_engine+0xe6>
 cb2:	e4 eb       	ldi	r30, 0xB4	; 180
 cb4:	f0 e0       	ldi	r31, 0x00	; 0
 cb6:	68 94       	set
 cb8:	15 90       	lpm	r1, Z+
 cba:	15 91       	lpm	r17, Z+
 cbc:	35 91       	lpm	r19, Z+
 cbe:	65 91       	lpm	r22, Z+
 cc0:	95 91       	lpm	r25, Z+
 cc2:	05 90       	lpm	r0, Z+
 cc4:	7f e2       	ldi	r23, 0x2F	; 47
 cc6:	73 95       	inc	r23
 cc8:	e1 18       	sub	r14, r1
 cca:	f1 0a       	sbc	r15, r17
 ccc:	43 0b       	sbc	r20, r19
 cce:	56 0b       	sbc	r21, r22
 cd0:	c9 0b       	sbc	r28, r25
 cd2:	d0 09       	sbc	r29, r0
 cd4:	c0 f7       	brcc	.-16     	; 0xcc6 <__ftoa_engine+0x10a>
 cd6:	e1 0c       	add	r14, r1
 cd8:	f1 1e       	adc	r15, r17
 cda:	43 1f       	adc	r20, r19
 cdc:	56 1f       	adc	r21, r22
 cde:	c9 1f       	adc	r28, r25
 ce0:	d0 1d       	adc	r29, r0
 ce2:	7e f4       	brtc	.+30     	; 0xd02 <__ftoa_engine+0x146>
 ce4:	70 33       	cpi	r23, 0x30	; 48
 ce6:	11 f4       	brne	.+4      	; 0xcec <__ftoa_engine+0x130>
 ce8:	8a 95       	dec	r24
 cea:	e6 cf       	rjmp	.-52     	; 0xcb8 <__ftoa_engine+0xfc>
 cec:	e8 94       	clt
 cee:	01 50       	subi	r16, 0x01	; 1
 cf0:	30 f0       	brcs	.+12     	; 0xcfe <__ftoa_engine+0x142>
 cf2:	08 0f       	add	r16, r24
 cf4:	0a f4       	brpl	.+2      	; 0xcf8 <__ftoa_engine+0x13c>
 cf6:	00 27       	eor	r16, r16
 cf8:	02 17       	cp	r16, r18
 cfa:	08 f4       	brcc	.+2      	; 0xcfe <__ftoa_engine+0x142>
 cfc:	20 2f       	mov	r18, r16
 cfe:	23 95       	inc	r18
 d00:	02 2f       	mov	r16, r18
 d02:	7a 33       	cpi	r23, 0x3A	; 58
 d04:	28 f0       	brcs	.+10     	; 0xd10 <__ftoa_engine+0x154>
 d06:	79 e3       	ldi	r23, 0x39	; 57
 d08:	7d 93       	st	X+, r23
 d0a:	2a 95       	dec	r18
 d0c:	e9 f7       	brne	.-6      	; 0xd08 <__ftoa_engine+0x14c>
 d0e:	10 c0       	rjmp	.+32     	; 0xd30 <__ftoa_engine+0x174>
 d10:	7d 93       	st	X+, r23
 d12:	2a 95       	dec	r18
 d14:	89 f6       	brne	.-94     	; 0xcb8 <__ftoa_engine+0xfc>
 d16:	06 94       	lsr	r0
 d18:	97 95       	ror	r25
 d1a:	67 95       	ror	r22
 d1c:	37 95       	ror	r19
 d1e:	17 95       	ror	r17
 d20:	17 94       	ror	r1
 d22:	e1 18       	sub	r14, r1
 d24:	f1 0a       	sbc	r15, r17
 d26:	43 0b       	sbc	r20, r19
 d28:	56 0b       	sbc	r21, r22
 d2a:	c9 0b       	sbc	r28, r25
 d2c:	d0 09       	sbc	r29, r0
 d2e:	98 f0       	brcs	.+38     	; 0xd56 <__ftoa_engine+0x19a>
 d30:	23 95       	inc	r18
 d32:	7e 91       	ld	r23, -X
 d34:	73 95       	inc	r23
 d36:	7a 33       	cpi	r23, 0x3A	; 58
 d38:	08 f0       	brcs	.+2      	; 0xd3c <__ftoa_engine+0x180>
 d3a:	70 e3       	ldi	r23, 0x30	; 48
 d3c:	7c 93       	st	X, r23
 d3e:	20 13       	cpse	r18, r16
 d40:	b8 f7       	brcc	.-18     	; 0xd30 <__ftoa_engine+0x174>
 d42:	7e 91       	ld	r23, -X
 d44:	70 61       	ori	r23, 0x10	; 16
 d46:	7d 93       	st	X+, r23
 d48:	30 f0       	brcs	.+12     	; 0xd56 <__ftoa_engine+0x19a>
 d4a:	83 95       	inc	r24
 d4c:	71 e3       	ldi	r23, 0x31	; 49
 d4e:	7d 93       	st	X+, r23
 d50:	70 e3       	ldi	r23, 0x30	; 48
 d52:	2a 95       	dec	r18
 d54:	e1 f7       	brne	.-8      	; 0xd4e <__ftoa_engine+0x192>
 d56:	11 24       	eor	r1, r1
 d58:	ef 90       	pop	r14
 d5a:	ff 90       	pop	r15
 d5c:	0f 91       	pop	r16
 d5e:	1f 91       	pop	r17
 d60:	cf 91       	pop	r28
 d62:	df 91       	pop	r29
 d64:	99 27       	eor	r25, r25
 d66:	87 fd       	sbrc	r24, 7
 d68:	90 95       	com	r25
 d6a:	08 95       	ret

00000d6c <__prologue_saves__>:
 d6c:	2f 92       	push	r2
 d6e:	3f 92       	push	r3
 d70:	4f 92       	push	r4
 d72:	5f 92       	push	r5
 d74:	6f 92       	push	r6
 d76:	7f 92       	push	r7
 d78:	8f 92       	push	r8
 d7a:	9f 92       	push	r9
 d7c:	af 92       	push	r10
 d7e:	bf 92       	push	r11
 d80:	cf 92       	push	r12
 d82:	df 92       	push	r13
 d84:	ef 92       	push	r14
 d86:	ff 92       	push	r15
 d88:	0f 93       	push	r16
 d8a:	1f 93       	push	r17
 d8c:	cf 93       	push	r28
 d8e:	df 93       	push	r29
 d90:	cd b7       	in	r28, 0x3d	; 61
 d92:	de b7       	in	r29, 0x3e	; 62
 d94:	ca 1b       	sub	r28, r26
 d96:	db 0b       	sbc	r29, r27
 d98:	0f b6       	in	r0, 0x3f	; 63
 d9a:	f8 94       	cli
 d9c:	de bf       	out	0x3e, r29	; 62
 d9e:	0f be       	out	0x3f, r0	; 63
 da0:	cd bf       	out	0x3d, r28	; 61
 da2:	09 94       	ijmp

00000da4 <__epilogue_restores__>:
 da4:	2a 88       	ldd	r2, Y+18	; 0x12
 da6:	39 88       	ldd	r3, Y+17	; 0x11
 da8:	48 88       	ldd	r4, Y+16	; 0x10
 daa:	5f 84       	ldd	r5, Y+15	; 0x0f
 dac:	6e 84       	ldd	r6, Y+14	; 0x0e
 dae:	7d 84       	ldd	r7, Y+13	; 0x0d
 db0:	8c 84       	ldd	r8, Y+12	; 0x0c
 db2:	9b 84       	ldd	r9, Y+11	; 0x0b
 db4:	aa 84       	ldd	r10, Y+10	; 0x0a
 db6:	b9 84       	ldd	r11, Y+9	; 0x09
 db8:	c8 84       	ldd	r12, Y+8	; 0x08
 dba:	df 80       	ldd	r13, Y+7	; 0x07
 dbc:	ee 80       	ldd	r14, Y+6	; 0x06
 dbe:	fd 80       	ldd	r15, Y+5	; 0x05
 dc0:	0c 81       	ldd	r16, Y+4	; 0x04
 dc2:	1b 81       	ldd	r17, Y+3	; 0x03
 dc4:	aa 81       	ldd	r26, Y+2	; 0x02
 dc6:	b9 81       	ldd	r27, Y+1	; 0x01
 dc8:	ce 0f       	add	r28, r30
 dca:	d1 1d       	adc	r29, r1
 dcc:	0f b6       	in	r0, 0x3f	; 63
 dce:	f8 94       	cli
 dd0:	de bf       	out	0x3e, r29	; 62
 dd2:	0f be       	out	0x3f, r0	; 63
 dd4:	cd bf       	out	0x3d, r28	; 61
 dd6:	ed 01       	movw	r28, r26
 dd8:	08 95       	ret

00000dda <_exit>:
 dda:	f8 94       	cli

00000ddc <__stop_program>:
 ddc:	ff cf       	rjmp	.-2      	; 0xddc <__stop_program>
